(dp1
S'output'
p2
S"<type 'exceptions.IndentationError'> unindent does not match any outer indentation level (controllers/backbone_form.py, line 6)"
p3
sS'layer'
p4
S'C:\\my_share\\web2py\\applications\\backbone\\controllers/backbone_form.py'
p5
sS'code'
p6
S'# -*- coding: utf-8 -*-\nfrom backbone_form import *\n\ndef index():\n\tadd_lib()\t\n    template = """ \\\n                <div style="border: 1px solid blue">\\\n                  <label for="{{id}}">{{title}}</label>\\\n                  <div>{{editor}}</div>\\\n                  <div>{{help}}</div>\\\n                </div>\\\n               """\t\n\treturn dict(template=template)\n\n\nresponse._vars=response._caller(index)\n'
p7
sS'snapshot'
p8
(dp9
S'exception'
p10
(dp11
S'__getslice__'
p12
S"<method-wrapper '__getslice__' of exceptions.IndentationError object>"
p13
sS'text'
p14
S'\'    template = """ \\\\\\n\''
p15
sS'__str__'
p16
S"<method-wrapper '__str__' of exceptions.IndentationError object>"
p17
sS'__reduce__'
p18
S'<built-in method __reduce__ of exceptions.IndentationError object>'
p19
sS'__dict__'
p20
S'{}'
p21
sS'__sizeof__'
p22
S'<built-in method __sizeof__ of exceptions.IndentationError object>'
p23
sS'__init__'
p24
S"<method-wrapper '__init__' of exceptions.IndentationError object>"
p25
sS'__setattr__'
p26
S"<method-wrapper '__setattr__' of exceptions.IndentationError object>"
p27
sS'__reduce_ex__'
p28
S'<built-in method __reduce_ex__ of exceptions.IndentationError object>'
p29
sS'__new__'
p30
S'<built-in method __new__ of type object>'
p31
sS'__format__'
p32
S'<built-in method __format__ of exceptions.IndentationError object>'
p33
sS'__class__'
p34
S"<type 'exceptions.IndentationError'>"
p35
sS'filename'
p36
S"r'C:\\my_share\\web2py\\applications\\backbone\\controllers/backbone_form.py'"
p37
sS'lineno'
p38
S'6'
sS'msg'
p39
S"'unindent does not match any outer indentation level'"
p40
sS'__doc__'
p41
S"'Improper indentation.'"
p42
sS'__getitem__'
p43
S"<method-wrapper '__getitem__' of exceptions.IndentationError object>"
p44
sS'__setstate__'
p45
S'<built-in method __setstate__ of exceptions.IndentationError object>'
p46
sS'__getattribute__'
p47
S"<method-wrapper '__getattribute__' of exceptions.IndentationError object>"
p48
sS'print_file_and_line'
p49
S'None'
p50
sS'args'
p51
S'(\'unindent does not match any outer indentation level\', (r\'C:\\my_share\\web2py\\applications\\backbone\\controllers/backbone_form.py\', 6, 21, \'    template = """ \\\\\\n\'))'
p52
sS'__subclasshook__'
p53
S'<built-in method __subclasshook__ of type object>'
p54
sS'offset'
p55
S'21'
p56
sS'__unicode__'
p57
S'<built-in method __unicode__ of exceptions.IndentationError object>'
p58
sS'__delattr__'
p59
S"<method-wrapper '__delattr__' of exceptions.IndentationError object>"
p60
sS'__repr__'
p61
S"<method-wrapper '__repr__' of exceptions.IndentationError object>"
p62
sS'__hash__'
p63
S"<method-wrapper '__hash__' of exceptions.IndentationError object>"
p64
ssS'evalue'
p65
S'unindent does not match any outer indentation level (controllers/backbone_form.py, line 6)'
p66
sS'request'
p67
ccopy_reg
_reconstructor
p68
(cgluon.html
BEAUTIFY
p69
c__builtin__
object
p70
NtRp71
(dp72
S'attributes'
p73
(dp74
sS'components'
p75
(lp76
g68
(cgluon.html
TABLE
p77
g70
NtRp78
(dp79
g73
(dp80
S'level'
p81
I5
ssS'parent'
p82
Nsg75
(lp83
g68
(cgluon.html
TR
p84
g70
NtRp85
(dp86
g73
(dp87
sg82
g78
sg75
(lp88
g68
(cgluon.html
TD
p89
g70
NtRp90
(dp91
g73
(dp92
S'_style'
p93
S'font-weight:bold;vertical-align:top'
p94
ssg82
g85
sg75
(lp95
S'ajax'
p96
asbag68
(g89
g70
NtRp97
(dp98
g73
(dp99
S'_valign'
p100
S'top'
p101
ssg82
g85
sg75
(lp102
S':'
asbag68
(g89
g70
NtRp103
(dp104
g73
(dp105
sg82
g85
sg75
(lp106
g68
(g69
g70
NtRp107
(dp108
g73
(dp109
g81
I5
ssg82
g103
sg75
(lp110
S'False'
p111
asbasbasbag68
(g84
g70
NtRp112
(dp113
g73
(dp114
sg82
g78
sg75
(lp115
g68
(g89
g70
NtRp116
(dp117
g73
(dp118
g93
g94
ssg82
g112
sg75
(lp119
S'application'
p120
asbag68
(g89
g70
NtRp121
(dp122
g73
(dp123
g100
g101
ssg82
g112
sg75
(lp124
S':'
asbag68
(g89
g70
NtRp125
(dp126
g73
(dp127
sg82
g112
sg75
(lp128
g68
(g69
g70
NtRp129
(dp130
g73
(dp131
g81
I5
ssg82
g125
sg75
(lp132
S'backbone'
p133
asbasbasbag68
(g84
g70
NtRp134
(dp135
g73
(dp136
sg82
g78
sg75
(lp137
g68
(g89
g70
NtRp138
(dp139
g73
(dp140
g93
g94
ssg82
g134
sg75
(lp141
g51
asbag68
(g89
g70
NtRp142
(dp143
g73
(dp144
g100
g101
ssg82
g134
sg75
(lp145
S':'
asbag68
(g89
g70
NtRp146
(dp147
g73
(dp148
sg82
g134
sg75
(lp149
g68
(g69
g70
NtRp150
(dp151
g73
(dp152
g81
I5
ssg82
g146
sg75
(lp153
g68
(g77
g70
NtRp154
(dp155
g73
(dp156
g81
I4
ssg82
Nsg75
(lp157
sbasbasbasbag68
(g84
g70
NtRp158
(dp159
g73
(dp160
sg82
g78
sg75
(lp161
g68
(g89
g70
NtRp162
(dp163
g73
(dp164
g93
g94
ssg82
g158
sg75
(lp165
S'body'
p166
asbag68
(g89
g70
NtRp167
(dp168
g73
(dp169
g100
g101
ssg82
g158
sg75
(lp170
S':'
asbag68
(g89
g70
NtRp171
(dp172
g73
(dp173
sg82
g158
sg75
(lp174
g68
(g69
g70
NtRp175
(dp176
g73
(dp177
g81
I5
ssg82
g171
sg75
(lp178
S'<cStringIO.StringO object at 0x01A595E0>'
p179
asbasbasbag68
(g84
g70
NtRp180
(dp181
g73
(dp182
sg82
g78
sg75
(lp183
g68
(g89
g70
NtRp184
(dp185
g73
(dp186
g93
g94
ssg82
g180
sg75
(lp187
S'client'
p188
asbag68
(g89
g70
NtRp189
(dp190
g73
(dp191
g100
g101
ssg82
g180
sg75
(lp192
S':'
asbag68
(g89
g70
NtRp193
(dp194
g73
(dp195
sg82
g180
sg75
(lp196
g68
(g69
g70
NtRp197
(dp198
g73
(dp199
g81
I5
ssg82
g193
sg75
(lp200
S'127.0.0.1'
p201
asbasbasbag68
(g84
g70
NtRp202
(dp203
g73
(dp204
sg82
g78
sg75
(lp205
g68
(g89
g70
NtRp206
(dp207
g73
(dp208
g93
g94
ssg82
g202
sg75
(lp209
S'controller'
p210
asbag68
(g89
g70
NtRp211
(dp212
g73
(dp213
g100
g101
ssg82
g202
sg75
(lp214
S':'
asbag68
(g89
g70
NtRp215
(dp216
g73
(dp217
sg82
g202
sg75
(lp218
g68
(g69
g70
NtRp219
(dp220
g73
(dp221
g81
I5
ssg82
g215
sg75
(lp222
S'backbone_form'
p223
asbasbasbag68
(g84
g70
NtRp224
(dp225
g73
(dp226
sg82
g78
sg75
(lp227
g68
(g89
g70
NtRp228
(dp229
g73
(dp230
g93
g94
ssg82
g224
sg75
(lp231
S'cookies'
p232
asbag68
(g89
g70
NtRp233
(dp234
g73
(dp235
g100
g101
ssg82
g224
sg75
(lp236
S':'
asbag68
(g89
g70
NtRp237
(dp238
g73
(dp239
sg82
g224
sg75
(lp240
g68
(g69
g70
NtRp241
(dp242
g73
(dp243
g81
I5
ssg82
g237
sg75
(lp244
g68
(g77
g70
NtRp245
(dp246
g73
(dp247
g81
I4
ssg82
Nsg75
(lp248
g68
(g84
g70
NtRp249
(dp250
g73
(dp251
sg82
g245
sg75
(lp252
g68
(g89
g70
NtRp253
(dp254
g73
(dp255
g93
g94
ssg82
g249
sg75
(lp256
S'session_id_admin'
p257
asbag68
(g89
g70
NtRp258
(dp259
g73
(dp260
g100
g101
ssg82
g249
sg75
(lp261
S':'
asbag68
(g89
g70
NtRp262
(dp263
g73
(dp264
sg82
g249
sg75
(lp265
g68
(g69
g70
NtRp266
(dp267
g73
(dp268
g81
I4
ssg82
g262
sg75
(lp269
g68
(g77
g70
NtRp270
(dp271
g73
(dp272
g81
I3
ssg82
Nsg75
(lp273
g68
(g84
g70
NtRp274
(dp275
g73
(dp276
sg82
g270
sg75
(lp277
g68
(g89
g70
NtRp278
(dp279
g73
(dp280
g93
g94
ssg82
g274
sg75
(lp281
S'comment'
p282
asbag68
(g89
g70
NtRp283
(dp284
g73
(dp285
g100
g101
ssg82
g274
sg75
(lp286
S':'
asbag68
(g89
g70
NtRp287
(dp288
g73
(dp289
sg82
g274
sg75
(lp290
g68
(g69
g70
NtRp291
(dp292
g73
(dp293
g81
I3
ssg82
g287
sg75
(lp294
S''
asbasbasbag68
(g84
g70
NtRp295
(dp296
g73
(dp297
sg82
g270
sg75
(lp298
g68
(g89
g70
NtRp299
(dp300
g73
(dp301
g93
g94
ssg82
g295
sg75
(lp302
S'domain'
p303
asbag68
(g89
g70
NtRp304
(dp305
g73
(dp306
g100
g101
ssg82
g295
sg75
(lp307
S':'
asbag68
(g89
g70
NtRp308
(dp309
g73
(dp310
sg82
g295
sg75
(lp311
g68
(g69
g70
NtRp312
(dp313
g73
(dp314
g81
I3
ssg82
g308
sg75
(lp315
S''
asbasbasbag68
(g84
g70
NtRp316
(dp317
g73
(dp318
sg82
g270
sg75
(lp319
g68
(g89
g70
NtRp320
(dp321
g73
(dp322
g93
g94
ssg82
g316
sg75
(lp323
S'expires'
p324
asbag68
(g89
g70
NtRp325
(dp326
g73
(dp327
g100
g101
ssg82
g316
sg75
(lp328
S':'
asbag68
(g89
g70
NtRp329
(dp330
g73
(dp331
sg82
g316
sg75
(lp332
g68
(g69
g70
NtRp333
(dp334
g73
(dp335
g81
I3
ssg82
g329
sg75
(lp336
S''
asbasbasbag68
(g84
g70
NtRp337
(dp338
g73
(dp339
sg82
g270
sg75
(lp340
g68
(g89
g70
NtRp341
(dp342
g73
(dp343
g93
g94
ssg82
g337
sg75
(lp344
S'httponly'
p345
asbag68
(g89
g70
NtRp346
(dp347
g73
(dp348
g100
g101
ssg82
g337
sg75
(lp349
S':'
asbag68
(g89
g70
NtRp350
(dp351
g73
(dp352
sg82
g337
sg75
(lp353
g68
(g69
g70
NtRp354
(dp355
g73
(dp356
g81
I3
ssg82
g350
sg75
(lp357
S''
asbasbasbag68
(g84
g70
NtRp358
(dp359
g73
(dp360
sg82
g270
sg75
(lp361
g68
(g89
g70
NtRp362
(dp363
g73
(dp364
g93
g94
ssg82
g358
sg75
(lp365
S'max-age'
p366
asbag68
(g89
g70
NtRp367
(dp368
g73
(dp369
g100
g101
ssg82
g358
sg75
(lp370
S':'
asbag68
(g89
g70
NtRp371
(dp372
g73
(dp373
sg82
g358
sg75
(lp374
g68
(g69
g70
NtRp375
(dp376
g73
(dp377
g81
I3
ssg82
g371
sg75
(lp378
S''
asbasbasbag68
(g84
g70
NtRp379
(dp380
g73
(dp381
sg82
g270
sg75
(lp382
g68
(g89
g70
NtRp383
(dp384
g73
(dp385
g93
g94
ssg82
g379
sg75
(lp386
S'path'
p387
asbag68
(g89
g70
NtRp388
(dp389
g73
(dp390
g100
g101
ssg82
g379
sg75
(lp391
S':'
asbag68
(g89
g70
NtRp392
(dp393
g73
(dp394
sg82
g379
sg75
(lp395
g68
(g69
g70
NtRp396
(dp397
g73
(dp398
g81
I3
ssg82
g392
sg75
(lp399
S''
asbasbasbag68
(g84
g70
NtRp400
(dp401
g73
(dp402
sg82
g270
sg75
(lp403
g68
(g89
g70
NtRp404
(dp405
g73
(dp406
g93
g94
ssg82
g400
sg75
(lp407
S'secure'
p408
asbag68
(g89
g70
NtRp409
(dp410
g73
(dp411
g100
g101
ssg82
g400
sg75
(lp412
S':'
asbag68
(g89
g70
NtRp413
(dp414
g73
(dp415
sg82
g400
sg75
(lp416
g68
(g69
g70
NtRp417
(dp418
g73
(dp419
g81
I3
ssg82
g413
sg75
(lp420
S''
asbasbasbag68
(g84
g70
NtRp421
(dp422
g73
(dp423
sg82
g270
sg75
(lp424
g68
(g89
g70
NtRp425
(dp426
g73
(dp427
g93
g94
ssg82
g421
sg75
(lp428
S'version'
p429
asbag68
(g89
g70
NtRp430
(dp431
g73
(dp432
g100
g101
ssg82
g421
sg75
(lp433
S':'
asbag68
(g89
g70
NtRp434
(dp435
g73
(dp436
sg82
g421
sg75
(lp437
g68
(g69
g70
NtRp438
(dp439
g73
(dp440
g81
I3
ssg82
g434
sg75
(lp441
S''
asbasbasbasbasbasbasbag68
(g84
g70
NtRp442
(dp443
g73
(dp444
sg82
g245
sg75
(lp445
g68
(g89
g70
NtRp446
(dp447
g73
(dp448
g93
g94
ssg82
g442
sg75
(lp449
S'session_id_backbone'
p450
asbag68
(g89
g70
NtRp451
(dp452
g73
(dp453
g100
g101
ssg82
g442
sg75
(lp454
S':'
asbag68
(g89
g70
NtRp455
(dp456
g73
(dp457
sg82
g442
sg75
(lp458
g68
(g69
g70
NtRp459
(dp460
g73
(dp461
g81
I4
ssg82
g455
sg75
(lp462
g68
(g77
g70
NtRp463
(dp464
g73
(dp465
g81
I3
ssg82
Nsg75
(lp466
g68
(g84
g70
NtRp467
(dp468
g73
(dp469
sg82
g463
sg75
(lp470
g68
(g89
g70
NtRp471
(dp472
g73
(dp473
g93
g94
ssg82
g467
sg75
(lp474
g282
asbag68
(g89
g70
NtRp475
(dp476
g73
(dp477
g100
g101
ssg82
g467
sg75
(lp478
S':'
asbag68
(g89
g70
NtRp479
(dp480
g73
(dp481
sg82
g467
sg75
(lp482
g68
(g69
g70
NtRp483
(dp484
g73
(dp485
g81
I3
ssg82
g479
sg75
(lp486
S''
asbasbasbag68
(g84
g70
NtRp487
(dp488
g73
(dp489
sg82
g463
sg75
(lp490
g68
(g89
g70
NtRp491
(dp492
g73
(dp493
g93
g94
ssg82
g487
sg75
(lp494
g303
asbag68
(g89
g70
NtRp495
(dp496
g73
(dp497
g100
g101
ssg82
g487
sg75
(lp498
S':'
asbag68
(g89
g70
NtRp499
(dp500
g73
(dp501
sg82
g487
sg75
(lp502
g68
(g69
g70
NtRp503
(dp504
g73
(dp505
g81
I3
ssg82
g499
sg75
(lp506
S''
asbasbasbag68
(g84
g70
NtRp507
(dp508
g73
(dp509
sg82
g463
sg75
(lp510
g68
(g89
g70
NtRp511
(dp512
g73
(dp513
g93
g94
ssg82
g507
sg75
(lp514
g324
asbag68
(g89
g70
NtRp515
(dp516
g73
(dp517
g100
g101
ssg82
g507
sg75
(lp518
S':'
asbag68
(g89
g70
NtRp519
(dp520
g73
(dp521
sg82
g507
sg75
(lp522
g68
(g69
g70
NtRp523
(dp524
g73
(dp525
g81
I3
ssg82
g519
sg75
(lp526
S''
asbasbasbag68
(g84
g70
NtRp527
(dp528
g73
(dp529
sg82
g463
sg75
(lp530
g68
(g89
g70
NtRp531
(dp532
g73
(dp533
g93
g94
ssg82
g527
sg75
(lp534
g345
asbag68
(g89
g70
NtRp535
(dp536
g73
(dp537
g100
g101
ssg82
g527
sg75
(lp538
S':'
asbag68
(g89
g70
NtRp539
(dp540
g73
(dp541
sg82
g527
sg75
(lp542
g68
(g69
g70
NtRp543
(dp544
g73
(dp545
g81
I3
ssg82
g539
sg75
(lp546
S''
asbasbasbag68
(g84
g70
NtRp547
(dp548
g73
(dp549
sg82
g463
sg75
(lp550
g68
(g89
g70
NtRp551
(dp552
g73
(dp553
g93
g94
ssg82
g547
sg75
(lp554
g366
asbag68
(g89
g70
NtRp555
(dp556
g73
(dp557
g100
g101
ssg82
g547
sg75
(lp558
S':'
asbag68
(g89
g70
NtRp559
(dp560
g73
(dp561
sg82
g547
sg75
(lp562
g68
(g69
g70
NtRp563
(dp564
g73
(dp565
g81
I3
ssg82
g559
sg75
(lp566
S''
asbasbasbag68
(g84
g70
NtRp567
(dp568
g73
(dp569
sg82
g463
sg75
(lp570
g68
(g89
g70
NtRp571
(dp572
g73
(dp573
g93
g94
ssg82
g567
sg75
(lp574
g387
asbag68
(g89
g70
NtRp575
(dp576
g73
(dp577
g100
g101
ssg82
g567
sg75
(lp578
S':'
asbag68
(g89
g70
NtRp579
(dp580
g73
(dp581
sg82
g567
sg75
(lp582
g68
(g69
g70
NtRp583
(dp584
g73
(dp585
g81
I3
ssg82
g579
sg75
(lp586
S''
asbasbasbag68
(g84
g70
NtRp587
(dp588
g73
(dp589
sg82
g463
sg75
(lp590
g68
(g89
g70
NtRp591
(dp592
g73
(dp593
g93
g94
ssg82
g587
sg75
(lp594
g408
asbag68
(g89
g70
NtRp595
(dp596
g73
(dp597
g100
g101
ssg82
g587
sg75
(lp598
S':'
asbag68
(g89
g70
NtRp599
(dp600
g73
(dp601
sg82
g587
sg75
(lp602
g68
(g69
g70
NtRp603
(dp604
g73
(dp605
g81
I3
ssg82
g599
sg75
(lp606
S''
asbasbasbag68
(g84
g70
NtRp607
(dp608
g73
(dp609
sg82
g463
sg75
(lp610
g68
(g89
g70
NtRp611
(dp612
g73
(dp613
g93
g94
ssg82
g607
sg75
(lp614
g429
asbag68
(g89
g70
NtRp615
(dp616
g73
(dp617
g100
g101
ssg82
g607
sg75
(lp618
S':'
asbag68
(g89
g70
NtRp619
(dp620
g73
(dp621
sg82
g607
sg75
(lp622
g68
(g69
g70
NtRp623
(dp624
g73
(dp625
g81
I3
ssg82
g619
sg75
(lp626
S''
asbasbasbasbasbasbasbag68
(g84
g70
NtRp627
(dp628
g73
(dp629
sg82
g245
sg75
(lp630
g68
(g89
g70
NtRp631
(dp632
g73
(dp633
g93
g94
ssg82
g627
sg75
(lp634
S'session_id_sqlabs'
p635
asbag68
(g89
g70
NtRp636
(dp637
g73
(dp638
g100
g101
ssg82
g627
sg75
(lp639
S':'
asbag68
(g89
g70
NtRp640
(dp641
g73
(dp642
sg82
g627
sg75
(lp643
g68
(g69
g70
NtRp644
(dp645
g73
(dp646
g81
I4
ssg82
g640
sg75
(lp647
g68
(g77
g70
NtRp648
(dp649
g73
(dp650
g81
I3
ssg82
Nsg75
(lp651
g68
(g84
g70
NtRp652
(dp653
g73
(dp654
sg82
g648
sg75
(lp655
g68
(g89
g70
NtRp656
(dp657
g73
(dp658
g93
g94
ssg82
g652
sg75
(lp659
g282
asbag68
(g89
g70
NtRp660
(dp661
g73
(dp662
g100
g101
ssg82
g652
sg75
(lp663
S':'
asbag68
(g89
g70
NtRp664
(dp665
g73
(dp666
sg82
g652
sg75
(lp667
g68
(g69
g70
NtRp668
(dp669
g73
(dp670
g81
I3
ssg82
g664
sg75
(lp671
S''
asbasbasbag68
(g84
g70
NtRp672
(dp673
g73
(dp674
sg82
g648
sg75
(lp675
g68
(g89
g70
NtRp676
(dp677
g73
(dp678
g93
g94
ssg82
g672
sg75
(lp679
g303
asbag68
(g89
g70
NtRp680
(dp681
g73
(dp682
g100
g101
ssg82
g672
sg75
(lp683
S':'
asbag68
(g89
g70
NtRp684
(dp685
g73
(dp686
sg82
g672
sg75
(lp687
g68
(g69
g70
NtRp688
(dp689
g73
(dp690
g81
I3
ssg82
g684
sg75
(lp691
S''
asbasbasbag68
(g84
g70
NtRp692
(dp693
g73
(dp694
sg82
g648
sg75
(lp695
g68
(g89
g70
NtRp696
(dp697
g73
(dp698
g93
g94
ssg82
g692
sg75
(lp699
g324
asbag68
(g89
g70
NtRp700
(dp701
g73
(dp702
g100
g101
ssg82
g692
sg75
(lp703
S':'
asbag68
(g89
g70
NtRp704
(dp705
g73
(dp706
sg82
g692
sg75
(lp707
g68
(g69
g70
NtRp708
(dp709
g73
(dp710
g81
I3
ssg82
g704
sg75
(lp711
S''
asbasbasbag68
(g84
g70
NtRp712
(dp713
g73
(dp714
sg82
g648
sg75
(lp715
g68
(g89
g70
NtRp716
(dp717
g73
(dp718
g93
g94
ssg82
g712
sg75
(lp719
g345
asbag68
(g89
g70
NtRp720
(dp721
g73
(dp722
g100
g101
ssg82
g712
sg75
(lp723
S':'
asbag68
(g89
g70
NtRp724
(dp725
g73
(dp726
sg82
g712
sg75
(lp727
g68
(g69
g70
NtRp728
(dp729
g73
(dp730
g81
I3
ssg82
g724
sg75
(lp731
S''
asbasbasbag68
(g84
g70
NtRp732
(dp733
g73
(dp734
sg82
g648
sg75
(lp735
g68
(g89
g70
NtRp736
(dp737
g73
(dp738
g93
g94
ssg82
g732
sg75
(lp739
g366
asbag68
(g89
g70
NtRp740
(dp741
g73
(dp742
g100
g101
ssg82
g732
sg75
(lp743
S':'
asbag68
(g89
g70
NtRp744
(dp745
g73
(dp746
sg82
g732
sg75
(lp747
g68
(g69
g70
NtRp748
(dp749
g73
(dp750
g81
I3
ssg82
g744
sg75
(lp751
S''
asbasbasbag68
(g84
g70
NtRp752
(dp753
g73
(dp754
sg82
g648
sg75
(lp755
g68
(g89
g70
NtRp756
(dp757
g73
(dp758
g93
g94
ssg82
g752
sg75
(lp759
g387
asbag68
(g89
g70
NtRp760
(dp761
g73
(dp762
g100
g101
ssg82
g752
sg75
(lp763
S':'
asbag68
(g89
g70
NtRp764
(dp765
g73
(dp766
sg82
g752
sg75
(lp767
g68
(g69
g70
NtRp768
(dp769
g73
(dp770
g81
I3
ssg82
g764
sg75
(lp771
S''
asbasbasbag68
(g84
g70
NtRp772
(dp773
g73
(dp774
sg82
g648
sg75
(lp775
g68
(g89
g70
NtRp776
(dp777
g73
(dp778
g93
g94
ssg82
g772
sg75
(lp779
g408
asbag68
(g89
g70
NtRp780
(dp781
g73
(dp782
g100
g101
ssg82
g772
sg75
(lp783
S':'
asbag68
(g89
g70
NtRp784
(dp785
g73
(dp786
sg82
g772
sg75
(lp787
g68
(g69
g70
NtRp788
(dp789
g73
(dp790
g81
I3
ssg82
g784
sg75
(lp791
S''
asbasbasbag68
(g84
g70
NtRp792
(dp793
g73
(dp794
sg82
g648
sg75
(lp795
g68
(g89
g70
NtRp796
(dp797
g73
(dp798
g93
g94
ssg82
g792
sg75
(lp799
g429
asbag68
(g89
g70
NtRp800
(dp801
g73
(dp802
g100
g101
ssg82
g792
sg75
(lp803
S':'
asbag68
(g89
g70
NtRp804
(dp805
g73
(dp806
sg82
g792
sg75
(lp807
g68
(g69
g70
NtRp808
(dp809
g73
(dp810
g81
I3
ssg82
g804
sg75
(lp811
S''
asbasbasbasbasbasbasbag68
(g84
g70
NtRp812
(dp813
g73
(dp814
sg82
g245
sg75
(lp815
g68
(g89
g70
NtRp816
(dp817
g73
(dp818
g93
g94
ssg82
g812
sg75
(lp819
S'session_id_welcome'
p820
asbag68
(g89
g70
NtRp821
(dp822
g73
(dp823
g100
g101
ssg82
g812
sg75
(lp824
S':'
asbag68
(g89
g70
NtRp825
(dp826
g73
(dp827
sg82
g812
sg75
(lp828
g68
(g69
g70
NtRp829
(dp830
g73
(dp831
g81
I4
ssg82
g825
sg75
(lp832
g68
(g77
g70
NtRp833
(dp834
g73
(dp835
g81
I3
ssg82
Nsg75
(lp836
g68
(g84
g70
NtRp837
(dp838
g73
(dp839
sg82
g833
sg75
(lp840
g68
(g89
g70
NtRp841
(dp842
g73
(dp843
g93
g94
ssg82
g837
sg75
(lp844
g282
asbag68
(g89
g70
NtRp845
(dp846
g73
(dp847
g100
g101
ssg82
g837
sg75
(lp848
S':'
asbag68
(g89
g70
NtRp849
(dp850
g73
(dp851
sg82
g837
sg75
(lp852
g68
(g69
g70
NtRp853
(dp854
g73
(dp855
g81
I3
ssg82
g849
sg75
(lp856
S''
asbasbasbag68
(g84
g70
NtRp857
(dp858
g73
(dp859
sg82
g833
sg75
(lp860
g68
(g89
g70
NtRp861
(dp862
g73
(dp863
g93
g94
ssg82
g857
sg75
(lp864
g303
asbag68
(g89
g70
NtRp865
(dp866
g73
(dp867
g100
g101
ssg82
g857
sg75
(lp868
S':'
asbag68
(g89
g70
NtRp869
(dp870
g73
(dp871
sg82
g857
sg75
(lp872
g68
(g69
g70
NtRp873
(dp874
g73
(dp875
g81
I3
ssg82
g869
sg75
(lp876
S''
asbasbasbag68
(g84
g70
NtRp877
(dp878
g73
(dp879
sg82
g833
sg75
(lp880
g68
(g89
g70
NtRp881
(dp882
g73
(dp883
g93
g94
ssg82
g877
sg75
(lp884
g324
asbag68
(g89
g70
NtRp885
(dp886
g73
(dp887
g100
g101
ssg82
g877
sg75
(lp888
S':'
asbag68
(g89
g70
NtRp889
(dp890
g73
(dp891
sg82
g877
sg75
(lp892
g68
(g69
g70
NtRp893
(dp894
g73
(dp895
g81
I3
ssg82
g889
sg75
(lp896
S''
asbasbasbag68
(g84
g70
NtRp897
(dp898
g73
(dp899
sg82
g833
sg75
(lp900
g68
(g89
g70
NtRp901
(dp902
g73
(dp903
g93
g94
ssg82
g897
sg75
(lp904
g345
asbag68
(g89
g70
NtRp905
(dp906
g73
(dp907
g100
g101
ssg82
g897
sg75
(lp908
S':'
asbag68
(g89
g70
NtRp909
(dp910
g73
(dp911
sg82
g897
sg75
(lp912
g68
(g69
g70
NtRp913
(dp914
g73
(dp915
g81
I3
ssg82
g909
sg75
(lp916
S''
asbasbasbag68
(g84
g70
NtRp917
(dp918
g73
(dp919
sg82
g833
sg75
(lp920
g68
(g89
g70
NtRp921
(dp922
g73
(dp923
g93
g94
ssg82
g917
sg75
(lp924
g366
asbag68
(g89
g70
NtRp925
(dp926
g73
(dp927
g100
g101
ssg82
g917
sg75
(lp928
S':'
asbag68
(g89
g70
NtRp929
(dp930
g73
(dp931
sg82
g917
sg75
(lp932
g68
(g69
g70
NtRp933
(dp934
g73
(dp935
g81
I3
ssg82
g929
sg75
(lp936
S''
asbasbasbag68
(g84
g70
NtRp937
(dp938
g73
(dp939
sg82
g833
sg75
(lp940
g68
(g89
g70
NtRp941
(dp942
g73
(dp943
g93
g94
ssg82
g937
sg75
(lp944
g387
asbag68
(g89
g70
NtRp945
(dp946
g73
(dp947
g100
g101
ssg82
g937
sg75
(lp948
S':'
asbag68
(g89
g70
NtRp949
(dp950
g73
(dp951
sg82
g937
sg75
(lp952
g68
(g69
g70
NtRp953
(dp954
g73
(dp955
g81
I3
ssg82
g949
sg75
(lp956
S''
asbasbasbag68
(g84
g70
NtRp957
(dp958
g73
(dp959
sg82
g833
sg75
(lp960
g68
(g89
g70
NtRp961
(dp962
g73
(dp963
g93
g94
ssg82
g957
sg75
(lp964
g408
asbag68
(g89
g70
NtRp965
(dp966
g73
(dp967
g100
g101
ssg82
g957
sg75
(lp968
S':'
asbag68
(g89
g70
NtRp969
(dp970
g73
(dp971
sg82
g957
sg75
(lp972
g68
(g69
g70
NtRp973
(dp974
g73
(dp975
g81
I3
ssg82
g969
sg75
(lp976
S''
asbasbasbag68
(g84
g70
NtRp977
(dp978
g73
(dp979
sg82
g833
sg75
(lp980
g68
(g89
g70
NtRp981
(dp982
g73
(dp983
g93
g94
ssg82
g977
sg75
(lp984
g429
asbag68
(g89
g70
NtRp985
(dp986
g73
(dp987
g100
g101
ssg82
g977
sg75
(lp988
S':'
asbag68
(g89
g70
NtRp989
(dp990
g73
(dp991
sg82
g977
sg75
(lp992
g68
(g69
g70
NtRp993
(dp994
g73
(dp995
g81
I3
ssg82
g989
sg75
(lp996
S''
asbasbasbasbasbasbasbasbasbasbasbag68
(g84
g70
NtRp997
(dp998
g73
(dp999
sg82
g78
sg75
(lp1000
g68
(g89
g70
NtRp1001
(dp1002
g73
(dp1003
g93
g94
ssg82
g997
sg75
(lp1004
S'env'
p1005
asbag68
(g89
g70
NtRp1006
(dp1007
g73
(dp1008
g100
g101
ssg82
g997
sg75
(lp1009
S':'
asbag68
(g89
g70
NtRp1010
(dp1011
g73
(dp1012
sg82
g997
sg75
(lp1013
g68
(g69
g70
NtRp1014
(dp1015
g73
(dp1016
g81
I5
ssg82
g1010
sg75
(lp1017
g68
(g77
g70
NtRp1018
(dp1019
g73
(dp1020
g81
I4
ssg82
Nsg75
(lp1021
g68
(g84
g70
NtRp1022
(dp1023
g73
(dp1024
sg82
g1018
sg75
(lp1025
g68
(g89
g70
NtRp1026
(dp1027
g73
(dp1028
g93
g94
ssg82
g1022
sg75
(lp1029
S'app_folders'
p1030
asbag68
(g89
g70
NtRp1031
(dp1032
g73
(dp1033
g100
g101
ssg82
g1022
sg75
(lp1034
S':'
asbag68
(g89
g70
NtRp1035
(dp1036
g73
(dp1037
sg82
g1022
sg75
(lp1038
g68
(g69
g70
NtRp1039
(dp1040
g73
(dp1041
g81
I4
ssg82
g1035
sg75
(lp1042
S"set(['C:\\\\my_share\\\\web2py\\\\applications\\\\backbone\\\\', 'C:\\\\my_share\\\\web2py\\\\applications\\\\sqlabs\\\\', 'C:\\\\my_share\\\\web2py\\\\applications\\\\admin\\\\', 'C:\\\\my_share\\\\web2py\\\\applications\\\\welcome\\\\'])"
p1043
asbasbasbag68
(g84
g70
NtRp1044
(dp1045
g73
(dp1046
sg82
g1018
sg75
(lp1047
g68
(g89
g70
NtRp1048
(dp1049
g73
(dp1050
g93
g94
ssg82
g1044
sg75
(lp1051
S'applications_parent'
p1052
asbag68
(g89
g70
NtRp1053
(dp1054
g73
(dp1055
g100
g101
ssg82
g1044
sg75
(lp1056
S':'
asbag68
(g89
g70
NtRp1057
(dp1058
g73
(dp1059
sg82
g1044
sg75
(lp1060
g68
(g69
g70
NtRp1061
(dp1062
g73
(dp1063
g81
I4
ssg82
g1057
sg75
(lp1064
S'C:\\my_share\\web2py'
p1065
asbasbasbag68
(g84
g70
NtRp1066
(dp1067
g73
(dp1068
sg82
g1018
sg75
(lp1069
g68
(g89
g70
NtRp1070
(dp1071
g73
(dp1072
g93
g94
ssg82
g1066
sg75
(lp1073
S'cmd_args'
p1074
asbag68
(g89
g70
NtRp1075
(dp1076
g73
(dp1077
g100
g101
ssg82
g1066
sg75
(lp1078
S':'
asbag68
(g89
g70
NtRp1079
(dp1080
g73
(dp1081
sg82
g1066
sg75
(lp1082
g68
(g69
g70
NtRp1083
(dp1084
g73
(dp1085
g81
I4
ssg82
g1079
sg75
(lp1086
g68
(g77
g70
NtRp1087
(dp1088
g73
(dp1089
g81
I3
ssg82
Nsg75
(lp1090
sbasbasbasbag68
(g84
g70
NtRp1091
(dp1092
g73
(dp1093
sg82
g1018
sg75
(lp1094
g68
(g89
g70
NtRp1095
(dp1096
g73
(dp1097
g93
g94
ssg82
g1091
sg75
(lp1098
S'cmd_options'
p1099
asbag68
(g89
g70
NtRp1100
(dp1101
g73
(dp1102
g100
g101
ssg82
g1091
sg75
(lp1103
S':'
asbag68
(g89
g70
NtRp1104
(dp1105
g73
(dp1106
sg82
g1091
sg75
(lp1107
g68
(g69
g70
NtRp1108
(dp1109
g73
(dp1110
g81
I4
ssg82
g1104
sg75
(lp1111
S"<Values at 0x165d698: {'verbose': False, 'ip': '127.0.0.1', 'shutdown_timeout': 5, 'taskbar': False, 'nocron': False, 'pid_filename': 'httpserver.pid', 'maxthreads': None, 'softcron': False, 'server_name': 'yusukekishita', 'bpython': False, 'nogui': False, 'port': 8000, 'extcron': False, 'debuglevel': 30, 'test': None, 'folder': 'C:\\\\my_share\\\\web2py', 'config': '', 'import_models': False, 'winservice': '', 'shell': None, 'run': '', 'log_filename': 'httpserver.log', 'args': [''], 'socket_timeout': 1, 'ssl_ca_certificate': None, 'scheduler': None, 'profiler_filename': None, 'ssl_private_key': '', 'password': '<ask>', 'request_queue_size': 5, 'ssl_certificate': '', 'cronjob': False, 'numthreads': None, 'quiet': False, 'interfaces': None, 'minthreads': None, 'timeout': 10, 'plain': False, 'nobanner': False}>"
p1112
asbasbasbag68
(g84
g70
NtRp1113
(dp1114
g73
(dp1115
sg82
g1018
sg75
(lp1116
g68
(g89
g70
NtRp1117
(dp1118
g73
(dp1119
g93
g94
ssg82
g1113
sg75
(lp1120
S'db_sessions'
p1121
asbag68
(g89
g70
NtRp1122
(dp1123
g73
(dp1124
g100
g101
ssg82
g1113
sg75
(lp1125
S':'
asbag68
(g89
g70
NtRp1126
(dp1127
g73
(dp1128
sg82
g1113
sg75
(lp1129
g68
(g69
g70
NtRp1130
(dp1131
g73
(dp1132
g81
I4
ssg82
g1126
sg75
(lp1133
S'set([])'
p1134
asbasbasbag68
(g84
g70
NtRp1135
(dp1136
g73
(dp1137
sg82
g1018
sg75
(lp1138
g68
(g89
g70
NtRp1139
(dp1140
g73
(dp1141
g93
g94
ssg82
g1135
sg75
(lp1142
S'debugging'
p1143
asbag68
(g89
g70
NtRp1144
(dp1145
g73
(dp1146
g100
g101
ssg82
g1135
sg75
(lp1147
S':'
asbag68
(g89
g70
NtRp1148
(dp1149
g73
(dp1150
sg82
g1135
sg75
(lp1151
g68
(g69
g70
NtRp1152
(dp1153
g73
(dp1154
g81
I4
ssg82
g1148
sg75
(lp1155
g111
asbasbasbag68
(g84
g70
NtRp1156
(dp1157
g73
(dp1158
sg82
g1018
sg75
(lp1159
g68
(g89
g70
NtRp1160
(dp1161
g73
(dp1162
g93
g94
ssg82
g1156
sg75
(lp1163
S'gluon_parent'
p1164
asbag68
(g89
g70
NtRp1165
(dp1166
g73
(dp1167
g100
g101
ssg82
g1156
sg75
(lp1168
S':'
asbag68
(g89
g70
NtRp1169
(dp1170
g73
(dp1171
sg82
g1156
sg75
(lp1172
g68
(g69
g70
NtRp1173
(dp1174
g73
(dp1175
g81
I4
ssg82
g1169
sg75
(lp1176
S'C:\\my_share\\web2py'
p1177
asbasbasbag68
(g84
g70
NtRp1178
(dp1179
g73
(dp1180
sg82
g1018
sg75
(lp1181
g68
(g89
g70
NtRp1182
(dp1183
g73
(dp1184
g93
g94
ssg82
g1178
sg75
(lp1185
S'http_accept'
p1186
asbag68
(g89
g70
NtRp1187
(dp1188
g73
(dp1189
g100
g101
ssg82
g1178
sg75
(lp1190
S':'
asbag68
(g89
g70
NtRp1191
(dp1192
g73
(dp1193
sg82
g1178
sg75
(lp1194
g68
(g69
g70
NtRp1195
(dp1196
g73
(dp1197
g81
I4
ssg82
g1191
sg75
(lp1198
S'text/html,application/xhtml+xml,application/xml;q=0.9,*/*;q=0.8'
p1199
asbasbasbag68
(g84
g70
NtRp1200
(dp1201
g73
(dp1202
sg82
g1018
sg75
(lp1203
g68
(g89
g70
NtRp1204
(dp1205
g73
(dp1206
g93
g94
ssg82
g1200
sg75
(lp1207
S'http_accept_charset'
p1208
asbag68
(g89
g70
NtRp1209
(dp1210
g73
(dp1211
g100
g101
ssg82
g1200
sg75
(lp1212
S':'
asbag68
(g89
g70
NtRp1213
(dp1214
g73
(dp1215
sg82
g1200
sg75
(lp1216
g68
(g69
g70
NtRp1217
(dp1218
g73
(dp1219
g81
I4
ssg82
g1213
sg75
(lp1220
S'Shift_JIS,utf-8;q=0.7,*;q=0.3'
p1221
asbasbasbag68
(g84
g70
NtRp1222
(dp1223
g73
(dp1224
sg82
g1018
sg75
(lp1225
g68
(g89
g70
NtRp1226
(dp1227
g73
(dp1228
g93
g94
ssg82
g1222
sg75
(lp1229
S'http_accept_encoding'
p1230
asbag68
(g89
g70
NtRp1231
(dp1232
g73
(dp1233
g100
g101
ssg82
g1222
sg75
(lp1234
S':'
asbag68
(g89
g70
NtRp1235
(dp1236
g73
(dp1237
sg82
g1222
sg75
(lp1238
g68
(g69
g70
NtRp1239
(dp1240
g73
(dp1241
g81
I4
ssg82
g1235
sg75
(lp1242
S'gzip,deflate,sdch'
p1243
asbasbasbag68
(g84
g70
NtRp1244
(dp1245
g73
(dp1246
sg82
g1018
sg75
(lp1247
g68
(g89
g70
NtRp1248
(dp1249
g73
(dp1250
g93
g94
ssg82
g1244
sg75
(lp1251
S'http_accept_language'
p1252
asbag68
(g89
g70
NtRp1253
(dp1254
g73
(dp1255
g100
g101
ssg82
g1244
sg75
(lp1256
S':'
asbag68
(g89
g70
NtRp1257
(dp1258
g73
(dp1259
sg82
g1244
sg75
(lp1260
g68
(g69
g70
NtRp1261
(dp1262
g73
(dp1263
g81
I4
ssg82
g1257
sg75
(lp1264
S'ja,en-US;q=0.8,en;q=0.6'
p1265
asbasbasbag68
(g84
g70
NtRp1266
(dp1267
g73
(dp1268
sg82
g1018
sg75
(lp1269
g68
(g89
g70
NtRp1270
(dp1271
g73
(dp1272
g93
g94
ssg82
g1266
sg75
(lp1273
S'http_cache_control'
p1274
asbag68
(g89
g70
NtRp1275
(dp1276
g73
(dp1277
g100
g101
ssg82
g1266
sg75
(lp1278
S':'
asbag68
(g89
g70
NtRp1279
(dp1280
g73
(dp1281
sg82
g1266
sg75
(lp1282
g68
(g69
g70
NtRp1283
(dp1284
g73
(dp1285
g81
I4
ssg82
g1279
sg75
(lp1286
S'max-age=0'
p1287
asbasbasbag68
(g84
g70
NtRp1288
(dp1289
g73
(dp1290
sg82
g1018
sg75
(lp1291
g68
(g89
g70
NtRp1292
(dp1293
g73
(dp1294
g93
g94
ssg82
g1288
sg75
(lp1295
S'http_connection'
p1296
asbag68
(g89
g70
NtRp1297
(dp1298
g73
(dp1299
g100
g101
ssg82
g1288
sg75
(lp1300
S':'
asbag68
(g89
g70
NtRp1301
(dp1302
g73
(dp1303
sg82
g1288
sg75
(lp1304
g68
(g69
g70
NtRp1305
(dp1306
g73
(dp1307
g81
I4
ssg82
g1301
sg75
(lp1308
S'keep-alive'
p1309
asbasbasbag68
(g84
g70
NtRp1310
(dp1311
g73
(dp1312
sg82
g1018
sg75
(lp1313
g68
(g89
g70
NtRp1314
(dp1315
g73
(dp1316
g93
g94
ssg82
g1310
sg75
(lp1317
S'http_cookie'
p1318
asbag68
(g89
g70
NtRp1319
(dp1320
g73
(dp1321
g100
g101
ssg82
g1310
sg75
(lp1322
S':'
asbag68
(g89
g70
NtRp1323
(dp1324
g73
(dp1325
sg82
g1310
sg75
(lp1326
g68
(g69
g70
NtRp1327
(dp1328
g73
(dp1329
g81
I4
ssg82
g1323
sg75
(lp1330
S'__utma=96992031.328122212.1330141442.1330156928.1331199004.6; __utmz=96992031.1330141442.1.1.utmcsr=(direct)|utmccn=(direct)|utmcmd=(none); session_id_welcome=127.0.0.1-0e2620c3-3580-483b-a8d0-044e7cdbcc85; session_id_sqlabs=127.0.0.1-74e4a90c-adbb-4ab7-bcd8-1992ebf3f776; session_id_backbone=127.0.0.1-56fcba44-5880-4821-b1e7-d01b42760d16; session_id_admin=127.0.0.1-ccc541cc-ccbb-46da-92f0-242c44fb92d5'
p1331
asbasbasbag68
(g84
g70
NtRp1332
(dp1333
g73
(dp1334
sg82
g1018
sg75
(lp1335
g68
(g89
g70
NtRp1336
(dp1337
g73
(dp1338
g93
g94
ssg82
g1332
sg75
(lp1339
S'http_host'
p1340
asbag68
(g89
g70
NtRp1341
(dp1342
g73
(dp1343
g100
g101
ssg82
g1332
sg75
(lp1344
S':'
asbag68
(g89
g70
NtRp1345
(dp1346
g73
(dp1347
sg82
g1332
sg75
(lp1348
g68
(g69
g70
NtRp1349
(dp1350
g73
(dp1351
g81
I4
ssg82
g1345
sg75
(lp1352
S'127.0.0.1:8000'
p1353
asbasbasbag68
(g84
g70
NtRp1354
(dp1355
g73
(dp1356
sg82
g1018
sg75
(lp1357
g68
(g89
g70
NtRp1358
(dp1359
g73
(dp1360
g93
g94
ssg82
g1354
sg75
(lp1361
S'http_user_agent'
p1362
asbag68
(g89
g70
NtRp1363
(dp1364
g73
(dp1365
g100
g101
ssg82
g1354
sg75
(lp1366
S':'
asbag68
(g89
g70
NtRp1367
(dp1368
g73
(dp1369
sg82
g1354
sg75
(lp1370
g68
(g69
g70
NtRp1371
(dp1372
g73
(dp1373
g81
I4
ssg82
g1367
sg75
(lp1374
S'Mozilla/5.0 (Windows NT 5.1) AppleWebKit/536.5 (KHTML, like Gecko) Chrome/19.0.1084.52 Safari/536.5'
p1375
asbasbasbag68
(g84
g70
NtRp1376
(dp1377
g73
(dp1378
sg82
g1018
sg75
(lp1379
g68
(g89
g70
NtRp1380
(dp1381
g73
(dp1382
g93
g94
ssg82
g1376
sg75
(lp1383
S'is_jython'
p1384
asbag68
(g89
g70
NtRp1385
(dp1386
g73
(dp1387
g100
g101
ssg82
g1376
sg75
(lp1388
S':'
asbag68
(g89
g70
NtRp1389
(dp1390
g73
(dp1391
sg82
g1376
sg75
(lp1392
g68
(g69
g70
NtRp1393
(dp1394
g73
(dp1395
g81
I4
ssg82
g1389
sg75
(lp1396
g111
asbasbasbag68
(g84
g70
NtRp1397
(dp1398
g73
(dp1399
sg82
g1018
sg75
(lp1400
g68
(g89
g70
NtRp1401
(dp1402
g73
(dp1403
g93
g94
ssg82
g1397
sg75
(lp1404
S'is_pypy'
p1405
asbag68
(g89
g70
NtRp1406
(dp1407
g73
(dp1408
g100
g101
ssg82
g1397
sg75
(lp1409
S':'
asbag68
(g89
g70
NtRp1410
(dp1411
g73
(dp1412
sg82
g1397
sg75
(lp1413
g68
(g69
g70
NtRp1414
(dp1415
g73
(dp1416
g81
I4
ssg82
g1410
sg75
(lp1417
g111
asbasbasbag68
(g84
g70
NtRp1418
(dp1419
g73
(dp1420
sg82
g1018
sg75
(lp1421
g68
(g89
g70
NtRp1422
(dp1423
g73
(dp1424
g93
g94
ssg82
g1418
sg75
(lp1425
S'path_info'
p1426
asbag68
(g89
g70
NtRp1427
(dp1428
g73
(dp1429
g100
g101
ssg82
g1418
sg75
(lp1430
S':'
asbag68
(g89
g70
NtRp1431
(dp1432
g73
(dp1433
sg82
g1418
sg75
(lp1434
g68
(g69
g70
NtRp1435
(dp1436
g73
(dp1437
g81
I4
ssg82
g1431
sg75
(lp1438
S'/backbone/backbone_form'
p1439
asbasbasbag68
(g84
g70
NtRp1440
(dp1441
g73
(dp1442
sg82
g1018
sg75
(lp1443
g68
(g89
g70
NtRp1444
(dp1445
g73
(dp1446
g93
g94
ssg82
g1440
sg75
(lp1447
S'query_string'
p1448
asbag68
(g89
g70
NtRp1449
(dp1450
g73
(dp1451
g100
g101
ssg82
g1440
sg75
(lp1452
S':'
asbag68
(g89
g70
NtRp1453
(dp1454
g73
(dp1455
sg82
g1440
sg75
(lp1456
g68
(g69
g70
NtRp1457
(dp1458
g73
(dp1459
g81
I4
ssg82
g1453
sg75
(lp1460
S''
asbasbasbag68
(g84
g70
NtRp1461
(dp1462
g73
(dp1463
sg82
g1018
sg75
(lp1464
g68
(g89
g70
NtRp1465
(dp1466
g73
(dp1467
g93
g94
ssg82
g1461
sg75
(lp1468
S'remote_addr'
p1469
asbag68
(g89
g70
NtRp1470
(dp1471
g73
(dp1472
g100
g101
ssg82
g1461
sg75
(lp1473
S':'
asbag68
(g89
g70
NtRp1474
(dp1475
g73
(dp1476
sg82
g1461
sg75
(lp1477
g68
(g69
g70
NtRp1478
(dp1479
g73
(dp1480
g81
I4
ssg82
g1474
sg75
(lp1481
g201
asbasbasbag68
(g84
g70
NtRp1482
(dp1483
g73
(dp1484
sg82
g1018
sg75
(lp1485
g68
(g89
g70
NtRp1486
(dp1487
g73
(dp1488
g93
g94
ssg82
g1482
sg75
(lp1489
S'remote_port'
p1490
asbag68
(g89
g70
NtRp1491
(dp1492
g73
(dp1493
g100
g101
ssg82
g1482
sg75
(lp1494
S':'
asbag68
(g89
g70
NtRp1495
(dp1496
g73
(dp1497
sg82
g1482
sg75
(lp1498
g68
(g69
g70
NtRp1499
(dp1500
g73
(dp1501
g81
I4
ssg82
g1495
sg75
(lp1502
S'4844'
p1503
asbasbasbag68
(g84
g70
NtRp1504
(dp1505
g73
(dp1506
sg82
g1018
sg75
(lp1507
g68
(g89
g70
NtRp1508
(dp1509
g73
(dp1510
g93
g94
ssg82
g1504
sg75
(lp1511
S'request_method'
p1512
asbag68
(g89
g70
NtRp1513
(dp1514
g73
(dp1515
g100
g101
ssg82
g1504
sg75
(lp1516
S':'
asbag68
(g89
g70
NtRp1517
(dp1518
g73
(dp1519
sg82
g1504
sg75
(lp1520
g68
(g69
g70
NtRp1521
(dp1522
g73
(dp1523
g81
I4
ssg82
g1517
sg75
(lp1524
S'GET'
p1525
asbasbasbag68
(g84
g70
NtRp1526
(dp1527
g73
(dp1528
sg82
g1018
sg75
(lp1529
g68
(g89
g70
NtRp1530
(dp1531
g73
(dp1532
g93
g94
ssg82
g1526
sg75
(lp1533
S'script_name'
p1534
asbag68
(g89
g70
NtRp1535
(dp1536
g73
(dp1537
g100
g101
ssg82
g1526
sg75
(lp1538
S':'
asbag68
(g89
g70
NtRp1539
(dp1540
g73
(dp1541
sg82
g1526
sg75
(lp1542
g68
(g69
g70
NtRp1543
(dp1544
g73
(dp1545
g81
I4
ssg82
g1539
sg75
(lp1546
S''
asbasbasbag68
(g84
g70
NtRp1547
(dp1548
g73
(dp1549
sg82
g1018
sg75
(lp1550
g68
(g89
g70
NtRp1551
(dp1552
g73
(dp1553
g93
g94
ssg82
g1547
sg75
(lp1554
S'server_name'
p1555
asbag68
(g89
g70
NtRp1556
(dp1557
g73
(dp1558
g100
g101
ssg82
g1547
sg75
(lp1559
S':'
asbag68
(g89
g70
NtRp1560
(dp1561
g73
(dp1562
sg82
g1547
sg75
(lp1563
g68
(g69
g70
NtRp1564
(dp1565
g73
(dp1566
g81
I4
ssg82
g1560
sg75
(lp1567
S'yusukekishita'
p1568
asbasbasbag68
(g84
g70
NtRp1569
(dp1570
g73
(dp1571
sg82
g1018
sg75
(lp1572
g68
(g89
g70
NtRp1573
(dp1574
g73
(dp1575
g93
g94
ssg82
g1569
sg75
(lp1576
S'server_port'
p1577
asbag68
(g89
g70
NtRp1578
(dp1579
g73
(dp1580
g100
g101
ssg82
g1569
sg75
(lp1581
S':'
asbag68
(g89
g70
NtRp1582
(dp1583
g73
(dp1584
sg82
g1569
sg75
(lp1585
g68
(g69
g70
NtRp1586
(dp1587
g73
(dp1588
g81
I4
ssg82
g1582
sg75
(lp1589
S'8000'
p1590
asbasbasbag68
(g84
g70
NtRp1591
(dp1592
g73
(dp1593
sg82
g1018
sg75
(lp1594
g68
(g89
g70
NtRp1595
(dp1596
g73
(dp1597
g93
g94
ssg82
g1591
sg75
(lp1598
S'server_protocol'
p1599
asbag68
(g89
g70
NtRp1600
(dp1601
g73
(dp1602
g100
g101
ssg82
g1591
sg75
(lp1603
S':'
asbag68
(g89
g70
NtRp1604
(dp1605
g73
(dp1606
sg82
g1591
sg75
(lp1607
g68
(g69
g70
NtRp1608
(dp1609
g73
(dp1610
g81
I4
ssg82
g1604
sg75
(lp1611
S'HTTP/1.1'
p1612
asbasbasbag68
(g84
g70
NtRp1613
(dp1614
g73
(dp1615
sg82
g1018
sg75
(lp1616
g68
(g89
g70
NtRp1617
(dp1618
g73
(dp1619
g93
g94
ssg82
g1613
sg75
(lp1620
S'server_software'
p1621
asbag68
(g89
g70
NtRp1622
(dp1623
g73
(dp1624
g100
g101
ssg82
g1613
sg75
(lp1625
S':'
asbag68
(g89
g70
NtRp1626
(dp1627
g73
(dp1628
sg82
g1613
sg75
(lp1629
g68
(g69
g70
NtRp1630
(dp1631
g73
(dp1632
g81
I4
ssg82
g1626
sg75
(lp1633
S'Rocket 1.2.4'
p1634
asbasbasbag68
(g84
g70
NtRp1635
(dp1636
g73
(dp1637
sg82
g1018
sg75
(lp1638
g68
(g89
g70
NtRp1639
(dp1640
g73
(dp1641
g93
g94
ssg82
g1635
sg75
(lp1642
S'web2py_crontype'
p1643
asbag68
(g89
g70
NtRp1644
(dp1645
g73
(dp1646
g100
g101
ssg82
g1635
sg75
(lp1647
S':'
asbag68
(g89
g70
NtRp1648
(dp1649
g73
(dp1650
sg82
g1635
sg75
(lp1651
g68
(g69
g70
NtRp1652
(dp1653
g73
(dp1654
g81
I4
ssg82
g1648
sg75
(lp1655
S'hard'
p1656
asbasbasbag68
(g84
g70
NtRp1657
(dp1658
g73
(dp1659
sg82
g1018
sg75
(lp1660
g68
(g89
g70
NtRp1661
(dp1662
g73
(dp1663
g93
g94
ssg82
g1657
sg75
(lp1664
S'web2py_path'
p1665
asbag68
(g89
g70
NtRp1666
(dp1667
g73
(dp1668
g100
g101
ssg82
g1657
sg75
(lp1669
S':'
asbag68
(g89
g70
NtRp1670
(dp1671
g73
(dp1672
sg82
g1657
sg75
(lp1673
g68
(g69
g70
NtRp1674
(dp1675
g73
(dp1676
g81
I4
ssg82
g1670
sg75
(lp1677
g1065
asbasbasbag68
(g84
g70
NtRp1678
(dp1679
g73
(dp1680
sg82
g1018
sg75
(lp1681
g68
(g89
g70
NtRp1682
(dp1683
g73
(dp1684
g93
g94
ssg82
g1678
sg75
(lp1685
S'web2py_version'
p1686
asbag68
(g89
g70
NtRp1687
(dp1688
g73
(dp1689
g100
g101
ssg82
g1678
sg75
(lp1690
S':'
asbag68
(g89
g70
NtRp1691
(dp1692
g73
(dp1693
sg82
g1678
sg75
(lp1694
g68
(g69
g70
NtRp1695
(dp1696
g73
(dp1697
g81
I4
ssg82
g1691
sg75
(lp1698
g68
(g77
g70
NtRp1699
(dp1700
g73
(dp1701
g81
I3
ssg82
Nsg75
(lp1702
g68
(g84
g70
NtRp1703
(dp1704
g73
(dp1705
sg82
g1699
sg75
(lp1706
g68
(g89
g70
NtRp1707
(dp1708
g73
(dp1709
sg82
g1703
sg75
(lp1710
g68
(g69
g70
NtRp1711
(dp1712
g73
(dp1713
g81
I3
ssg82
g1707
sg75
(lp1714
S'1'
asbasbasbag68
(g84
g70
NtRp1715
(dp1716
g73
(dp1717
sg82
g1699
sg75
(lp1718
g68
(g89
g70
NtRp1719
(dp1720
g73
(dp1721
sg82
g1715
sg75
(lp1722
g68
(g69
g70
NtRp1723
(dp1724
g73
(dp1725
g81
I3
ssg82
g1719
sg75
(lp1726
S'99'
p1727
asbasbasbag68
(g84
g70
NtRp1728
(dp1729
g73
(dp1730
sg82
g1699
sg75
(lp1731
g68
(g89
g70
NtRp1732
(dp1733
g73
(dp1734
sg82
g1728
sg75
(lp1735
g68
(g69
g70
NtRp1736
(dp1737
g73
(dp1738
g81
I3
ssg82
g1732
sg75
(lp1739
S'4'
asbasbasbag68
(g84
g70
NtRp1740
(dp1741
g73
(dp1742
sg82
g1699
sg75
(lp1743
g68
(g89
g70
NtRp1744
(dp1745
g73
(dp1746
sg82
g1740
sg75
(lp1747
g68
(g69
g70
NtRp1748
(dp1749
g73
(dp1750
g81
I3
ssg82
g1744
sg75
(lp1751
S'datetime.datetime(2011, 12, 14, 14, 46, 14)'
p1752
asbasbasbag68
(g84
g70
NtRp1753
(dp1754
g73
(dp1755
sg82
g1699
sg75
(lp1756
g68
(g89
g70
NtRp1757
(dp1758
g73
(dp1759
sg82
g1753
sg75
(lp1760
g68
(g69
g70
NtRp1761
(dp1762
g73
(dp1763
g81
I3
ssg82
g1757
sg75
(lp1764
S'stable'
p1765
asbasbasbasbasbasbasbag68
(g84
g70
NtRp1766
(dp1767
g73
(dp1768
sg82
g1018
sg75
(lp1769
g68
(g89
g70
NtRp1770
(dp1771
g73
(dp1772
g93
g94
ssg82
g1766
sg75
(lp1773
S'wsgi_errors'
p1774
asbag68
(g89
g70
NtRp1775
(dp1776
g73
(dp1777
g100
g101
ssg82
g1766
sg75
(lp1778
S':'
asbag68
(g89
g70
NtRp1779
(dp1780
g73
(dp1781
sg82
g1766
sg75
(lp1782
g68
(g69
g70
NtRp1783
(dp1784
g73
(dp1785
g81
I4
ssg82
g1779
sg75
(lp1786
S"<open file '<stderr>', mode 'w' at 0x00B150D0>"
p1787
asbasbasbag68
(g84
g70
NtRp1788
(dp1789
g73
(dp1790
sg82
g1018
sg75
(lp1791
g68
(g89
g70
NtRp1792
(dp1793
g73
(dp1794
g93
g94
ssg82
g1788
sg75
(lp1795
S'wsgi_file_wrapper'
p1796
asbag68
(g89
g70
NtRp1797
(dp1798
g73
(dp1799
g100
g101
ssg82
g1788
sg75
(lp1800
S':'
asbag68
(g89
g70
NtRp1801
(dp1802
g73
(dp1803
sg82
g1788
sg75
(lp1804
g68
(g69
g70
NtRp1805
(dp1806
g73
(dp1807
g81
I4
ssg82
g1801
sg75
(lp1808
S'<class wsgiref.util.FileWrapper at 0x01596420>'
p1809
asbasbasbag68
(g84
g70
NtRp1810
(dp1811
g73
(dp1812
sg82
g1018
sg75
(lp1813
g68
(g89
g70
NtRp1814
(dp1815
g73
(dp1816
g93
g94
ssg82
g1810
sg75
(lp1817
S'wsgi_input'
p1818
asbag68
(g89
g70
NtRp1819
(dp1820
g73
(dp1821
g100
g101
ssg82
g1810
sg75
(lp1822
S':'
asbag68
(g89
g70
NtRp1823
(dp1824
g73
(dp1825
sg82
g1810
sg75
(lp1826
g68
(g69
g70
NtRp1827
(dp1828
g73
(dp1829
g81
I4
ssg82
g1823
sg75
(lp1830
S'<socket._fileobject object at 0x074CFAF0>'
p1831
asbasbasbag68
(g84
g70
NtRp1832
(dp1833
g73
(dp1834
sg82
g1018
sg75
(lp1835
g68
(g89
g70
NtRp1836
(dp1837
g73
(dp1838
g93
g94
ssg82
g1832
sg75
(lp1839
S'wsgi_multiprocess'
p1840
asbag68
(g89
g70
NtRp1841
(dp1842
g73
(dp1843
g100
g101
ssg82
g1832
sg75
(lp1844
S':'
asbag68
(g89
g70
NtRp1845
(dp1846
g73
(dp1847
sg82
g1832
sg75
(lp1848
g68
(g69
g70
NtRp1849
(dp1850
g73
(dp1851
g81
I4
ssg82
g1845
sg75
(lp1852
g111
asbasbasbag68
(g84
g70
NtRp1853
(dp1854
g73
(dp1855
sg82
g1018
sg75
(lp1856
g68
(g89
g70
NtRp1857
(dp1858
g73
(dp1859
g93
g94
ssg82
g1853
sg75
(lp1860
S'wsgi_multithread'
p1861
asbag68
(g89
g70
NtRp1862
(dp1863
g73
(dp1864
g100
g101
ssg82
g1853
sg75
(lp1865
S':'
asbag68
(g89
g70
NtRp1866
(dp1867
g73
(dp1868
sg82
g1853
sg75
(lp1869
g68
(g69
g70
NtRp1870
(dp1871
g73
(dp1872
g81
I4
ssg82
g1866
sg75
(lp1873
S'True'
p1874
asbasbasbag68
(g84
g70
NtRp1875
(dp1876
g73
(dp1877
sg82
g1018
sg75
(lp1878
g68
(g89
g70
NtRp1879
(dp1880
g73
(dp1881
g93
g94
ssg82
g1875
sg75
(lp1882
S'wsgi_run_once'
p1883
asbag68
(g89
g70
NtRp1884
(dp1885
g73
(dp1886
g100
g101
ssg82
g1875
sg75
(lp1887
S':'
asbag68
(g89
g70
NtRp1888
(dp1889
g73
(dp1890
sg82
g1875
sg75
(lp1891
g68
(g69
g70
NtRp1892
(dp1893
g73
(dp1894
g81
I4
ssg82
g1888
sg75
(lp1895
g111
asbasbasbag68
(g84
g70
NtRp1896
(dp1897
g73
(dp1898
sg82
g1018
sg75
(lp1899
g68
(g89
g70
NtRp1900
(dp1901
g73
(dp1902
g93
g94
ssg82
g1896
sg75
(lp1903
S'wsgi_url_scheme'
p1904
asbag68
(g89
g70
NtRp1905
(dp1906
g73
(dp1907
g100
g101
ssg82
g1896
sg75
(lp1908
S':'
asbag68
(g89
g70
NtRp1909
(dp1910
g73
(dp1911
sg82
g1896
sg75
(lp1912
g68
(g69
g70
NtRp1913
(dp1914
g73
(dp1915
g81
I4
ssg82
g1909
sg75
(lp1916
S'http'
p1917
asbasbasbag68
(g84
g70
NtRp1918
(dp1919
g73
(dp1920
sg82
g1018
sg75
(lp1921
g68
(g89
g70
NtRp1922
(dp1923
g73
(dp1924
g93
g94
ssg82
g1918
sg75
(lp1925
S'wsgi_version'
p1926
asbag68
(g89
g70
NtRp1927
(dp1928
g73
(dp1929
g100
g101
ssg82
g1918
sg75
(lp1930
S':'
asbag68
(g89
g70
NtRp1931
(dp1932
g73
(dp1933
sg82
g1918
sg75
(lp1934
g68
(g69
g70
NtRp1935
(dp1936
g73
(dp1937
g81
I4
ssg82
g1931
sg75
(lp1938
g68
(g77
g70
NtRp1939
(dp1940
g73
(dp1941
g81
I3
ssg82
Nsg75
(lp1942
g68
(g84
g70
NtRp1943
(dp1944
g73
(dp1945
sg82
g1939
sg75
(lp1946
g68
(g89
g70
NtRp1947
(dp1948
g73
(dp1949
sg82
g1943
sg75
(lp1950
g68
(g69
g70
NtRp1951
(dp1952
g73
(dp1953
g81
I3
ssg82
g1947
sg75
(lp1954
S'1'
asbasbasbag68
(g84
g70
NtRp1955
(dp1956
g73
(dp1957
sg82
g1939
sg75
(lp1958
g68
(g89
g70
NtRp1959
(dp1960
g73
(dp1961
sg82
g1955
sg75
(lp1962
g68
(g69
g70
NtRp1963
(dp1964
g73
(dp1965
g81
I3
ssg82
g1959
sg75
(lp1966
S'0'
asbasbasbasbasbasbasbasbasbasbasbag68
(g84
g70
NtRp1967
(dp1968
g73
(dp1969
sg82
g78
sg75
(lp1970
g68
(g89
g70
NtRp1971
(dp1972
g73
(dp1973
g93
g94
ssg82
g1967
sg75
(lp1974
S'extension'
p1975
asbag68
(g89
g70
NtRp1976
(dp1977
g73
(dp1978
g100
g101
ssg82
g1967
sg75
(lp1979
S':'
asbag68
(g89
g70
NtRp1980
(dp1981
g73
(dp1982
sg82
g1967
sg75
(lp1983
g68
(g69
g70
NtRp1984
(dp1985
g73
(dp1986
g81
I5
ssg82
g1980
sg75
(lp1987
S'html'
p1988
asbasbasbag68
(g84
g70
NtRp1989
(dp1990
g73
(dp1991
sg82
g78
sg75
(lp1992
g68
(g89
g70
NtRp1993
(dp1994
g73
(dp1995
g93
g94
ssg82
g1989
sg75
(lp1996
S'folder'
p1997
asbag68
(g89
g70
NtRp1998
(dp1999
g73
(dp2000
g100
g101
ssg82
g1989
sg75
(lp2001
S':'
asbag68
(g89
g70
NtRp2002
(dp2003
g73
(dp2004
sg82
g1989
sg75
(lp2005
g68
(g69
g70
NtRp2006
(dp2007
g73
(dp2008
g81
I5
ssg82
g2002
sg75
(lp2009
S'C:\\my_share\\web2py\\applications\\backbone\\'
p2010
asbasbasbag68
(g84
g70
NtRp2011
(dp2012
g73
(dp2013
sg82
g78
sg75
(lp2014
g68
(g89
g70
NtRp2015
(dp2016
g73
(dp2017
g93
g94
ssg82
g2011
sg75
(lp2018
S'function'
p2019
asbag68
(g89
g70
NtRp2020
(dp2021
g73
(dp2022
g100
g101
ssg82
g2011
sg75
(lp2023
S':'
asbag68
(g89
g70
NtRp2024
(dp2025
g73
(dp2026
sg82
g2011
sg75
(lp2027
g68
(g69
g70
NtRp2028
(dp2029
g73
(dp2030
g81
I5
ssg82
g2024
sg75
(lp2031
S'index'
p2032
asbasbasbag68
(g84
g70
NtRp2033
(dp2034
g73
(dp2035
sg82
g78
sg75
(lp2036
g68
(g89
g70
NtRp2037
(dp2038
g73
(dp2039
g93
g94
ssg82
g2033
sg75
(lp2040
S'get_vars'
p2041
asbag68
(g89
g70
NtRp2042
(dp2043
g73
(dp2044
g100
g101
ssg82
g2033
sg75
(lp2045
S':'
asbag68
(g89
g70
NtRp2046
(dp2047
g73
(dp2048
sg82
g2033
sg75
(lp2049
g68
(g69
g70
NtRp2050
(dp2051
g73
(dp2052
g81
I5
ssg82
g2046
sg75
(lp2053
g68
(g77
g70
NtRp2054
(dp2055
g73
(dp2056
g81
I4
ssg82
Nsg75
(lp2057
sbasbasbasbag68
(g84
g70
NtRp2058
(dp2059
g73
(dp2060
sg82
g78
sg75
(lp2061
g68
(g89
g70
NtRp2062
(dp2063
g73
(dp2064
g93
g94
ssg82
g2058
sg75
(lp2065
S'global_settings'
p2066
asbag68
(g89
g70
NtRp2067
(dp2068
g73
(dp2069
g100
g101
ssg82
g2058
sg75
(lp2070
S':'
asbag68
(g89
g70
NtRp2071
(dp2072
g73
(dp2073
sg82
g2058
sg75
(lp2074
g68
(g69
g70
NtRp2075
(dp2076
g73
(dp2077
g81
I5
ssg82
g2071
sg75
(lp2078
g68
(g77
g70
NtRp2079
(dp2080
g73
(dp2081
g81
I4
ssg82
Nsg75
(lp2082
g68
(g84
g70
NtRp2083
(dp2084
g73
(dp2085
sg82
g2079
sg75
(lp2086
g68
(g89
g70
NtRp2087
(dp2088
g73
(dp2089
g93
g94
ssg82
g2083
sg75
(lp2090
g1030
asbag68
(g89
g70
NtRp2091
(dp2092
g73
(dp2093
g100
g101
ssg82
g2083
sg75
(lp2094
S':'
asbag68
(g89
g70
NtRp2095
(dp2096
g73
(dp2097
sg82
g2083
sg75
(lp2098
g68
(g69
g70
NtRp2099
(dp2100
g73
(dp2101
g81
I4
ssg82
g2095
sg75
(lp2102
S"set(['C:\\\\my_share\\\\web2py\\\\applications\\\\backbone\\\\', 'C:\\\\my_share\\\\web2py\\\\applications\\\\sqlabs\\\\', 'C:\\\\my_share\\\\web2py\\\\applications\\\\admin\\\\', 'C:\\\\my_share\\\\web2py\\\\applications\\\\welcome\\\\'])"
p2103
asbasbasbag68
(g84
g70
NtRp2104
(dp2105
g73
(dp2106
sg82
g2079
sg75
(lp2107
g68
(g89
g70
NtRp2108
(dp2109
g73
(dp2110
g93
g94
ssg82
g2104
sg75
(lp2111
g1052
asbag68
(g89
g70
NtRp2112
(dp2113
g73
(dp2114
g100
g101
ssg82
g2104
sg75
(lp2115
S':'
asbag68
(g89
g70
NtRp2116
(dp2117
g73
(dp2118
sg82
g2104
sg75
(lp2119
g68
(g69
g70
NtRp2120
(dp2121
g73
(dp2122
g81
I4
ssg82
g2116
sg75
(lp2123
g1065
asbasbasbag68
(g84
g70
NtRp2124
(dp2125
g73
(dp2126
sg82
g2079
sg75
(lp2127
g68
(g89
g70
NtRp2128
(dp2129
g73
(dp2130
g93
g94
ssg82
g2124
sg75
(lp2131
g1074
asbag68
(g89
g70
NtRp2132
(dp2133
g73
(dp2134
g100
g101
ssg82
g2124
sg75
(lp2135
S':'
asbag68
(g89
g70
NtRp2136
(dp2137
g73
(dp2138
sg82
g2124
sg75
(lp2139
g68
(g69
g70
NtRp2140
(dp2141
g73
(dp2142
g81
I4
ssg82
g2136
sg75
(lp2143
g68
(g77
g70
NtRp2144
(dp2145
g73
(dp2146
g81
I3
ssg82
Nsg75
(lp2147
sbasbasbasbag68
(g84
g70
NtRp2148
(dp2149
g73
(dp2150
sg82
g2079
sg75
(lp2151
g68
(g89
g70
NtRp2152
(dp2153
g73
(dp2154
g93
g94
ssg82
g2148
sg75
(lp2155
g1099
asbag68
(g89
g70
NtRp2156
(dp2157
g73
(dp2158
g100
g101
ssg82
g2148
sg75
(lp2159
S':'
asbag68
(g89
g70
NtRp2160
(dp2161
g73
(dp2162
sg82
g2148
sg75
(lp2163
g68
(g69
g70
NtRp2164
(dp2165
g73
(dp2166
g81
I4
ssg82
g2160
sg75
(lp2167
S"<Values at 0x165d698: {'verbose': False, 'ip': '127.0.0.1', 'shutdown_timeout': 5, 'taskbar': False, 'nocron': False, 'pid_filename': 'httpserver.pid', 'maxthreads': None, 'softcron': False, 'server_name': 'yusukekishita', 'bpython': False, 'nogui': False, 'port': 8000, 'extcron': False, 'debuglevel': 30, 'test': None, 'folder': 'C:\\\\my_share\\\\web2py', 'config': '', 'import_models': False, 'winservice': '', 'shell': None, 'run': '', 'log_filename': 'httpserver.log', 'args': [''], 'socket_timeout': 1, 'ssl_ca_certificate': None, 'scheduler': None, 'profiler_filename': None, 'ssl_private_key': '', 'password': '<ask>', 'request_queue_size': 5, 'ssl_certificate': '', 'cronjob': False, 'numthreads': None, 'quiet': False, 'interfaces': None, 'minthreads': None, 'timeout': 10, 'plain': False, 'nobanner': False}>"
p2168
asbasbasbag68
(g84
g70
NtRp2169
(dp2170
g73
(dp2171
sg82
g2079
sg75
(lp2172
g68
(g89
g70
NtRp2173
(dp2174
g73
(dp2175
g93
g94
ssg82
g2169
sg75
(lp2176
g1121
asbag68
(g89
g70
NtRp2177
(dp2178
g73
(dp2179
g100
g101
ssg82
g2169
sg75
(lp2180
S':'
asbag68
(g89
g70
NtRp2181
(dp2182
g73
(dp2183
sg82
g2169
sg75
(lp2184
g68
(g69
g70
NtRp2185
(dp2186
g73
(dp2187
g81
I4
ssg82
g2181
sg75
(lp2188
S'set([])'
p2189
asbasbasbag68
(g84
g70
NtRp2190
(dp2191
g73
(dp2192
sg82
g2079
sg75
(lp2193
g68
(g89
g70
NtRp2194
(dp2195
g73
(dp2196
g93
g94
ssg82
g2190
sg75
(lp2197
g1143
asbag68
(g89
g70
NtRp2198
(dp2199
g73
(dp2200
g100
g101
ssg82
g2190
sg75
(lp2201
S':'
asbag68
(g89
g70
NtRp2202
(dp2203
g73
(dp2204
sg82
g2190
sg75
(lp2205
g68
(g69
g70
NtRp2206
(dp2207
g73
(dp2208
g81
I4
ssg82
g2202
sg75
(lp2209
g111
asbasbasbag68
(g84
g70
NtRp2210
(dp2211
g73
(dp2212
sg82
g2079
sg75
(lp2213
g68
(g89
g70
NtRp2214
(dp2215
g73
(dp2216
g93
g94
ssg82
g2210
sg75
(lp2217
g1164
asbag68
(g89
g70
NtRp2218
(dp2219
g73
(dp2220
g100
g101
ssg82
g2210
sg75
(lp2221
S':'
asbag68
(g89
g70
NtRp2222
(dp2223
g73
(dp2224
sg82
g2210
sg75
(lp2225
g68
(g69
g70
NtRp2226
(dp2227
g73
(dp2228
g81
I4
ssg82
g2222
sg75
(lp2229
g1177
asbasbasbag68
(g84
g70
NtRp2230
(dp2231
g73
(dp2232
sg82
g2079
sg75
(lp2233
g68
(g89
g70
NtRp2234
(dp2235
g73
(dp2236
g93
g94
ssg82
g2230
sg75
(lp2237
g1384
asbag68
(g89
g70
NtRp2238
(dp2239
g73
(dp2240
g100
g101
ssg82
g2230
sg75
(lp2241
S':'
asbag68
(g89
g70
NtRp2242
(dp2243
g73
(dp2244
sg82
g2230
sg75
(lp2245
g68
(g69
g70
NtRp2246
(dp2247
g73
(dp2248
g81
I4
ssg82
g2242
sg75
(lp2249
g111
asbasbasbag68
(g84
g70
NtRp2250
(dp2251
g73
(dp2252
sg82
g2079
sg75
(lp2253
g68
(g89
g70
NtRp2254
(dp2255
g73
(dp2256
g93
g94
ssg82
g2250
sg75
(lp2257
g1405
asbag68
(g89
g70
NtRp2258
(dp2259
g73
(dp2260
g100
g101
ssg82
g2250
sg75
(lp2261
S':'
asbag68
(g89
g70
NtRp2262
(dp2263
g73
(dp2264
sg82
g2250
sg75
(lp2265
g68
(g69
g70
NtRp2266
(dp2267
g73
(dp2268
g81
I4
ssg82
g2262
sg75
(lp2269
g111
asbasbasbag68
(g84
g70
NtRp2270
(dp2271
g73
(dp2272
sg82
g2079
sg75
(lp2273
g68
(g89
g70
NtRp2274
(dp2275
g73
(dp2276
g93
g94
ssg82
g2270
sg75
(lp2277
g1643
asbag68
(g89
g70
NtRp2278
(dp2279
g73
(dp2280
g100
g101
ssg82
g2270
sg75
(lp2281
S':'
asbag68
(g89
g70
NtRp2282
(dp2283
g73
(dp2284
sg82
g2270
sg75
(lp2285
g68
(g69
g70
NtRp2286
(dp2287
g73
(dp2288
g81
I4
ssg82
g2282
sg75
(lp2289
g1656
asbasbasbag68
(g84
g70
NtRp2290
(dp2291
g73
(dp2292
sg82
g2079
sg75
(lp2293
g68
(g89
g70
NtRp2294
(dp2295
g73
(dp2296
g93
g94
ssg82
g2290
sg75
(lp2297
g1686
asbag68
(g89
g70
NtRp2298
(dp2299
g73
(dp2300
g100
g101
ssg82
g2290
sg75
(lp2301
S':'
asbag68
(g89
g70
NtRp2302
(dp2303
g73
(dp2304
sg82
g2290
sg75
(lp2305
g68
(g69
g70
NtRp2306
(dp2307
g73
(dp2308
g81
I4
ssg82
g2302
sg75
(lp2309
g68
(g77
g70
NtRp2310
(dp2311
g73
(dp2312
g81
I3
ssg82
Nsg75
(lp2313
g68
(g84
g70
NtRp2314
(dp2315
g73
(dp2316
sg82
g2310
sg75
(lp2317
g68
(g89
g70
NtRp2318
(dp2319
g73
(dp2320
sg82
g2314
sg75
(lp2321
g68
(g69
g70
NtRp2322
(dp2323
g73
(dp2324
g81
I3
ssg82
g2318
sg75
(lp2325
S'1'
asbasbasbag68
(g84
g70
NtRp2326
(dp2327
g73
(dp2328
sg82
g2310
sg75
(lp2329
g68
(g89
g70
NtRp2330
(dp2331
g73
(dp2332
sg82
g2326
sg75
(lp2333
g68
(g69
g70
NtRp2334
(dp2335
g73
(dp2336
g81
I3
ssg82
g2330
sg75
(lp2337
S'99'
p2338
asbasbasbag68
(g84
g70
NtRp2339
(dp2340
g73
(dp2341
sg82
g2310
sg75
(lp2342
g68
(g89
g70
NtRp2343
(dp2344
g73
(dp2345
sg82
g2339
sg75
(lp2346
g68
(g69
g70
NtRp2347
(dp2348
g73
(dp2349
g81
I3
ssg82
g2343
sg75
(lp2350
S'4'
asbasbasbag68
(g84
g70
NtRp2351
(dp2352
g73
(dp2353
sg82
g2310
sg75
(lp2354
g68
(g89
g70
NtRp2355
(dp2356
g73
(dp2357
sg82
g2351
sg75
(lp2358
g68
(g69
g70
NtRp2359
(dp2360
g73
(dp2361
g81
I3
ssg82
g2355
sg75
(lp2362
S'datetime.datetime(2011, 12, 14, 14, 46, 14)'
p2363
asbasbasbag68
(g84
g70
NtRp2364
(dp2365
g73
(dp2366
sg82
g2310
sg75
(lp2367
g68
(g89
g70
NtRp2368
(dp2369
g73
(dp2370
sg82
g2364
sg75
(lp2371
g68
(g69
g70
NtRp2372
(dp2373
g73
(dp2374
g81
I3
ssg82
g2368
sg75
(lp2375
g1765
asbasbasbasbasbasbasbasbasbasbasbag68
(g84
g70
NtRp2376
(dp2377
g73
(dp2378
sg82
g78
sg75
(lp2379
g68
(g89
g70
NtRp2380
(dp2381
g73
(dp2382
g93
g94
ssg82
g2376
sg75
(lp2383
S'is_https'
p2384
asbag68
(g89
g70
NtRp2385
(dp2386
g73
(dp2387
g100
g101
ssg82
g2376
sg75
(lp2388
S':'
asbag68
(g89
g70
NtRp2389
(dp2390
g73
(dp2391
sg82
g2376
sg75
(lp2392
g68
(g69
g70
NtRp2393
(dp2394
g73
(dp2395
g81
I5
ssg82
g2389
sg75
(lp2396
g111
asbasbasbag68
(g84
g70
NtRp2397
(dp2398
g73
(dp2399
sg82
g78
sg75
(lp2400
g68
(g89
g70
NtRp2401
(dp2402
g73
(dp2403
g93
g94
ssg82
g2397
sg75
(lp2404
S'is_local'
p2405
asbag68
(g89
g70
NtRp2406
(dp2407
g73
(dp2408
g100
g101
ssg82
g2397
sg75
(lp2409
S':'
asbag68
(g89
g70
NtRp2410
(dp2411
g73
(dp2412
sg82
g2397
sg75
(lp2413
g68
(g69
g70
NtRp2414
(dp2415
g73
(dp2416
g81
I5
ssg82
g2410
sg75
(lp2417
g1874
asbasbasbag68
(g84
g70
NtRp2418
(dp2419
g73
(dp2420
sg82
g78
sg75
(lp2421
g68
(g89
g70
NtRp2422
(dp2423
g73
(dp2424
g93
g94
ssg82
g2418
sg75
(lp2425
S'is_restful'
p2426
asbag68
(g89
g70
NtRp2427
(dp2428
g73
(dp2429
g100
g101
ssg82
g2418
sg75
(lp2430
S':'
asbag68
(g89
g70
NtRp2431
(dp2432
g73
(dp2433
sg82
g2418
sg75
(lp2434
g68
(g69
g70
NtRp2435
(dp2436
g73
(dp2437
g81
I5
ssg82
g2431
sg75
(lp2438
g111
asbasbasbag68
(g84
g70
NtRp2439
(dp2440
g73
(dp2441
sg82
g78
sg75
(lp2442
g68
(g89
g70
NtRp2443
(dp2444
g73
(dp2445
g93
g94
ssg82
g2439
sg75
(lp2446
S'now'
p2447
asbag68
(g89
g70
NtRp2448
(dp2449
g73
(dp2450
g100
g101
ssg82
g2439
sg75
(lp2451
S':'
asbag68
(g89
g70
NtRp2452
(dp2453
g73
(dp2454
sg82
g2439
sg75
(lp2455
g68
(g69
g70
NtRp2456
(dp2457
g73
(dp2458
g81
I5
ssg82
g2452
sg75
(lp2459
S'datetime.datetime(2012, 6, 5, 19, 24, 19, 859000)'
p2460
asbasbasbag68
(g84
g70
NtRp2461
(dp2462
g73
(dp2463
sg82
g78
sg75
(lp2464
g68
(g89
g70
NtRp2465
(dp2466
g73
(dp2467
g93
g94
ssg82
g2461
sg75
(lp2468
S'post_vars'
p2469
asbag68
(g89
g70
NtRp2470
(dp2471
g73
(dp2472
g100
g101
ssg82
g2461
sg75
(lp2473
S':'
asbag68
(g89
g70
NtRp2474
(dp2475
g73
(dp2476
sg82
g2461
sg75
(lp2477
g68
(g69
g70
NtRp2478
(dp2479
g73
(dp2480
g81
I5
ssg82
g2474
sg75
(lp2481
g68
(g77
g70
NtRp2482
(dp2483
g73
(dp2484
g81
I4
ssg82
Nsg75
(lp2485
sbasbasbasbag68
(g84
g70
NtRp2486
(dp2487
g73
(dp2488
sg82
g78
sg75
(lp2489
g68
(g89
g70
NtRp2490
(dp2491
g73
(dp2492
g93
g94
ssg82
g2486
sg75
(lp2493
S'url'
p2494
asbag68
(g89
g70
NtRp2495
(dp2496
g73
(dp2497
g100
g101
ssg82
g2486
sg75
(lp2498
S':'
asbag68
(g89
g70
NtRp2499
(dp2500
g73
(dp2501
sg82
g2486
sg75
(lp2502
g68
(g69
g70
NtRp2503
(dp2504
g73
(dp2505
g81
I5
ssg82
g2499
sg75
(lp2506
S'/backbone/backbone_form/index'
p2507
asbasbasbag68
(g84
g70
NtRp2508
(dp2509
g73
(dp2510
sg82
g78
sg75
(lp2511
g68
(g89
g70
NtRp2512
(dp2513
g73
(dp2514
g93
g94
ssg82
g2508
sg75
(lp2515
S'utcnow'
p2516
asbag68
(g89
g70
NtRp2517
(dp2518
g73
(dp2519
g100
g101
ssg82
g2508
sg75
(lp2520
S':'
asbag68
(g89
g70
NtRp2521
(dp2522
g73
(dp2523
sg82
g2508
sg75
(lp2524
g68
(g69
g70
NtRp2525
(dp2526
g73
(dp2527
g81
I5
ssg82
g2521
sg75
(lp2528
S'datetime.datetime(2012, 6, 5, 10, 24, 19, 859000)'
p2529
asbasbasbag68
(g84
g70
NtRp2530
(dp2531
g73
(dp2532
sg82
g78
sg75
(lp2533
g68
(g89
g70
NtRp2534
(dp2535
g73
(dp2536
g93
g94
ssg82
g2530
sg75
(lp2537
S'uuid'
p2538
asbag68
(g89
g70
NtRp2539
(dp2540
g73
(dp2541
g100
g101
ssg82
g2530
sg75
(lp2542
S':'
asbag68
(g89
g70
NtRp2543
(dp2544
g73
(dp2545
sg82
g2530
sg75
(lp2546
g68
(g69
g70
NtRp2547
(dp2548
g73
(dp2549
g81
I5
ssg82
g2543
sg75
(lp2550
S'backbone/127.0.0.1.2012-06-05.19-24-19.35976910-19bd-4eb8-a2c7-6ec092dddaac'
p2551
asbasbasbag68
(g84
g70
NtRp2552
(dp2553
g73
(dp2554
sg82
g78
sg75
(lp2555
g68
(g89
g70
NtRp2556
(dp2557
g73
(dp2558
g93
g94
ssg82
g2552
sg75
(lp2559
S'vars'
p2560
asbag68
(g89
g70
NtRp2561
(dp2562
g73
(dp2563
g100
g101
ssg82
g2552
sg75
(lp2564
S':'
asbag68
(g89
g70
NtRp2565
(dp2566
g73
(dp2567
sg82
g2552
sg75
(lp2568
g68
(g69
g70
NtRp2569
(dp2570
g73
(dp2571
g81
I5
ssg82
g2565
sg75
(lp2572
g68
(g77
g70
NtRp2573
(dp2574
g73
(dp2575
g81
I4
ssg82
Nsg75
(lp2576
sbasbasbasbag68
(g84
g70
NtRp2577
(dp2578
g73
(dp2579
sg82
g78
sg75
(lp2580
g68
(g89
g70
NtRp2581
(dp2582
g73
(dp2583
g93
g94
ssg82
g2577
sg75
(lp2584
S'wsgi'
p2585
asbag68
(g89
g70
NtRp2586
(dp2587
g73
(dp2588
g100
g101
ssg82
g2577
sg75
(lp2589
S':'
asbag68
(g89
g70
NtRp2590
(dp2591
g73
(dp2592
sg82
g2577
sg75
(lp2593
g68
(g69
g70
NtRp2594
(dp2595
g73
(dp2596
g81
I5
ssg82
g2590
sg75
(lp2597
g68
(g77
g70
NtRp2598
(dp2599
g73
(dp2600
g81
I4
ssg82
Nsg75
(lp2601
g68
(g84
g70
NtRp2602
(dp2603
g73
(dp2604
sg82
g2598
sg75
(lp2605
g68
(g89
g70
NtRp2606
(dp2607
g73
(dp2608
g93
g94
ssg82
g2602
sg75
(lp2609
S'environ'
p2610
asbag68
(g89
g70
NtRp2611
(dp2612
g73
(dp2613
g100
g101
ssg82
g2602
sg75
(lp2614
S':'
asbag68
(g89
g70
NtRp2615
(dp2616
g73
(dp2617
sg82
g2602
sg75
(lp2618
g68
(g69
g70
NtRp2619
(dp2620
g73
(dp2621
g81
I4
ssg82
g2615
sg75
(lp2622
g68
(g77
g70
NtRp2623
(dp2624
g73
(dp2625
g81
I3
ssg82
Nsg75
(lp2626
g68
(g84
g70
NtRp2627
(dp2628
g73
(dp2629
sg82
g2623
sg75
(lp2630
g68
(g89
g70
NtRp2631
(dp2632
g73
(dp2633
g93
g94
ssg82
g2627
sg75
(lp2634
S'HTTP_ACCEPT'
p2635
asbag68
(g89
g70
NtRp2636
(dp2637
g73
(dp2638
g100
g101
ssg82
g2627
sg75
(lp2639
S':'
asbag68
(g89
g70
NtRp2640
(dp2641
g73
(dp2642
sg82
g2627
sg75
(lp2643
g68
(g69
g70
NtRp2644
(dp2645
g73
(dp2646
g81
I3
ssg82
g2640
sg75
(lp2647
g1199
asbasbasbag68
(g84
g70
NtRp2648
(dp2649
g73
(dp2650
sg82
g2623
sg75
(lp2651
g68
(g89
g70
NtRp2652
(dp2653
g73
(dp2654
g93
g94
ssg82
g2648
sg75
(lp2655
S'HTTP_ACCEPT_CHARSET'
p2656
asbag68
(g89
g70
NtRp2657
(dp2658
g73
(dp2659
g100
g101
ssg82
g2648
sg75
(lp2660
S':'
asbag68
(g89
g70
NtRp2661
(dp2662
g73
(dp2663
sg82
g2648
sg75
(lp2664
g68
(g69
g70
NtRp2665
(dp2666
g73
(dp2667
g81
I3
ssg82
g2661
sg75
(lp2668
g1221
asbasbasbag68
(g84
g70
NtRp2669
(dp2670
g73
(dp2671
sg82
g2623
sg75
(lp2672
g68
(g89
g70
NtRp2673
(dp2674
g73
(dp2675
g93
g94
ssg82
g2669
sg75
(lp2676
S'HTTP_ACCEPT_ENCODING'
p2677
asbag68
(g89
g70
NtRp2678
(dp2679
g73
(dp2680
g100
g101
ssg82
g2669
sg75
(lp2681
S':'
asbag68
(g89
g70
NtRp2682
(dp2683
g73
(dp2684
sg82
g2669
sg75
(lp2685
g68
(g69
g70
NtRp2686
(dp2687
g73
(dp2688
g81
I3
ssg82
g2682
sg75
(lp2689
g1243
asbasbasbag68
(g84
g70
NtRp2690
(dp2691
g73
(dp2692
sg82
g2623
sg75
(lp2693
g68
(g89
g70
NtRp2694
(dp2695
g73
(dp2696
g93
g94
ssg82
g2690
sg75
(lp2697
S'HTTP_ACCEPT_LANGUAGE'
p2698
asbag68
(g89
g70
NtRp2699
(dp2700
g73
(dp2701
g100
g101
ssg82
g2690
sg75
(lp2702
S':'
asbag68
(g89
g70
NtRp2703
(dp2704
g73
(dp2705
sg82
g2690
sg75
(lp2706
g68
(g69
g70
NtRp2707
(dp2708
g73
(dp2709
g81
I3
ssg82
g2703
sg75
(lp2710
g1265
asbasbasbag68
(g84
g70
NtRp2711
(dp2712
g73
(dp2713
sg82
g2623
sg75
(lp2714
g68
(g89
g70
NtRp2715
(dp2716
g73
(dp2717
g93
g94
ssg82
g2711
sg75
(lp2718
S'HTTP_CACHE_CONTROL'
p2719
asbag68
(g89
g70
NtRp2720
(dp2721
g73
(dp2722
g100
g101
ssg82
g2711
sg75
(lp2723
S':'
asbag68
(g89
g70
NtRp2724
(dp2725
g73
(dp2726
sg82
g2711
sg75
(lp2727
g68
(g69
g70
NtRp2728
(dp2729
g73
(dp2730
g81
I3
ssg82
g2724
sg75
(lp2731
g1287
asbasbasbag68
(g84
g70
NtRp2732
(dp2733
g73
(dp2734
sg82
g2623
sg75
(lp2735
g68
(g89
g70
NtRp2736
(dp2737
g73
(dp2738
g93
g94
ssg82
g2732
sg75
(lp2739
S'HTTP_CONNECTION'
p2740
asbag68
(g89
g70
NtRp2741
(dp2742
g73
(dp2743
g100
g101
ssg82
g2732
sg75
(lp2744
S':'
asbag68
(g89
g70
NtRp2745
(dp2746
g73
(dp2747
sg82
g2732
sg75
(lp2748
g68
(g69
g70
NtRp2749
(dp2750
g73
(dp2751
g81
I3
ssg82
g2745
sg75
(lp2752
g1309
asbasbasbag68
(g84
g70
NtRp2753
(dp2754
g73
(dp2755
sg82
g2623
sg75
(lp2756
g68
(g89
g70
NtRp2757
(dp2758
g73
(dp2759
g93
g94
ssg82
g2753
sg75
(lp2760
S'HTTP_COOKIE'
p2761
asbag68
(g89
g70
NtRp2762
(dp2763
g73
(dp2764
g100
g101
ssg82
g2753
sg75
(lp2765
S':'
asbag68
(g89
g70
NtRp2766
(dp2767
g73
(dp2768
sg82
g2753
sg75
(lp2769
g68
(g69
g70
NtRp2770
(dp2771
g73
(dp2772
g81
I3
ssg82
g2766
sg75
(lp2773
g1331
asbasbasbag68
(g84
g70
NtRp2774
(dp2775
g73
(dp2776
sg82
g2623
sg75
(lp2777
g68
(g89
g70
NtRp2778
(dp2779
g73
(dp2780
g93
g94
ssg82
g2774
sg75
(lp2781
S'HTTP_HOST'
p2782
asbag68
(g89
g70
NtRp2783
(dp2784
g73
(dp2785
g100
g101
ssg82
g2774
sg75
(lp2786
S':'
asbag68
(g89
g70
NtRp2787
(dp2788
g73
(dp2789
sg82
g2774
sg75
(lp2790
g68
(g69
g70
NtRp2791
(dp2792
g73
(dp2793
g81
I3
ssg82
g2787
sg75
(lp2794
g1353
asbasbasbag68
(g84
g70
NtRp2795
(dp2796
g73
(dp2797
sg82
g2623
sg75
(lp2798
g68
(g89
g70
NtRp2799
(dp2800
g73
(dp2801
g93
g94
ssg82
g2795
sg75
(lp2802
S'HTTP_USER_AGENT'
p2803
asbag68
(g89
g70
NtRp2804
(dp2805
g73
(dp2806
g100
g101
ssg82
g2795
sg75
(lp2807
S':'
asbag68
(g89
g70
NtRp2808
(dp2809
g73
(dp2810
sg82
g2795
sg75
(lp2811
g68
(g69
g70
NtRp2812
(dp2813
g73
(dp2814
g81
I3
ssg82
g2808
sg75
(lp2815
g1375
asbasbasbag68
(g84
g70
NtRp2816
(dp2817
g73
(dp2818
sg82
g2623
sg75
(lp2819
g68
(g89
g70
NtRp2820
(dp2821
g73
(dp2822
g93
g94
ssg82
g2816
sg75
(lp2823
S'PATH_INFO'
p2824
asbag68
(g89
g70
NtRp2825
(dp2826
g73
(dp2827
g100
g101
ssg82
g2816
sg75
(lp2828
S':'
asbag68
(g89
g70
NtRp2829
(dp2830
g73
(dp2831
sg82
g2816
sg75
(lp2832
g68
(g69
g70
NtRp2833
(dp2834
g73
(dp2835
g81
I3
ssg82
g2829
sg75
(lp2836
g1439
asbasbasbag68
(g84
g70
NtRp2837
(dp2838
g73
(dp2839
sg82
g2623
sg75
(lp2840
g68
(g89
g70
NtRp2841
(dp2842
g73
(dp2843
g93
g94
ssg82
g2837
sg75
(lp2844
S'QUERY_STRING'
p2845
asbag68
(g89
g70
NtRp2846
(dp2847
g73
(dp2848
g100
g101
ssg82
g2837
sg75
(lp2849
S':'
asbag68
(g89
g70
NtRp2850
(dp2851
g73
(dp2852
sg82
g2837
sg75
(lp2853
g68
(g69
g70
NtRp2854
(dp2855
g73
(dp2856
g81
I3
ssg82
g2850
sg75
(lp2857
S''
asbasbasbag68
(g84
g70
NtRp2858
(dp2859
g73
(dp2860
sg82
g2623
sg75
(lp2861
g68
(g89
g70
NtRp2862
(dp2863
g73
(dp2864
g93
g94
ssg82
g2858
sg75
(lp2865
S'REMOTE_ADDR'
p2866
asbag68
(g89
g70
NtRp2867
(dp2868
g73
(dp2869
g100
g101
ssg82
g2858
sg75
(lp2870
S':'
asbag68
(g89
g70
NtRp2871
(dp2872
g73
(dp2873
sg82
g2858
sg75
(lp2874
g68
(g69
g70
NtRp2875
(dp2876
g73
(dp2877
g81
I3
ssg82
g2871
sg75
(lp2878
g201
asbasbasbag68
(g84
g70
NtRp2879
(dp2880
g73
(dp2881
sg82
g2623
sg75
(lp2882
g68
(g89
g70
NtRp2883
(dp2884
g73
(dp2885
g93
g94
ssg82
g2879
sg75
(lp2886
S'REMOTE_PORT'
p2887
asbag68
(g89
g70
NtRp2888
(dp2889
g73
(dp2890
g100
g101
ssg82
g2879
sg75
(lp2891
S':'
asbag68
(g89
g70
NtRp2892
(dp2893
g73
(dp2894
sg82
g2879
sg75
(lp2895
g68
(g69
g70
NtRp2896
(dp2897
g73
(dp2898
g81
I3
ssg82
g2892
sg75
(lp2899
g1503
asbasbasbag68
(g84
g70
NtRp2900
(dp2901
g73
(dp2902
sg82
g2623
sg75
(lp2903
g68
(g89
g70
NtRp2904
(dp2905
g73
(dp2906
g93
g94
ssg82
g2900
sg75
(lp2907
S'REQUEST_METHOD'
p2908
asbag68
(g89
g70
NtRp2909
(dp2910
g73
(dp2911
g100
g101
ssg82
g2900
sg75
(lp2912
S':'
asbag68
(g89
g70
NtRp2913
(dp2914
g73
(dp2915
sg82
g2900
sg75
(lp2916
g68
(g69
g70
NtRp2917
(dp2918
g73
(dp2919
g81
I3
ssg82
g2913
sg75
(lp2920
g1525
asbasbasbag68
(g84
g70
NtRp2921
(dp2922
g73
(dp2923
sg82
g2623
sg75
(lp2924
g68
(g89
g70
NtRp2925
(dp2926
g73
(dp2927
g93
g94
ssg82
g2921
sg75
(lp2928
S'SCRIPT_NAME'
p2929
asbag68
(g89
g70
NtRp2930
(dp2931
g73
(dp2932
g100
g101
ssg82
g2921
sg75
(lp2933
S':'
asbag68
(g89
g70
NtRp2934
(dp2935
g73
(dp2936
sg82
g2921
sg75
(lp2937
g68
(g69
g70
NtRp2938
(dp2939
g73
(dp2940
g81
I3
ssg82
g2934
sg75
(lp2941
S''
asbasbasbag68
(g84
g70
NtRp2942
(dp2943
g73
(dp2944
sg82
g2623
sg75
(lp2945
g68
(g89
g70
NtRp2946
(dp2947
g73
(dp2948
g93
g94
ssg82
g2942
sg75
(lp2949
S'SERVER_NAME'
p2950
asbag68
(g89
g70
NtRp2951
(dp2952
g73
(dp2953
g100
g101
ssg82
g2942
sg75
(lp2954
S':'
asbag68
(g89
g70
NtRp2955
(dp2956
g73
(dp2957
sg82
g2942
sg75
(lp2958
g68
(g69
g70
NtRp2959
(dp2960
g73
(dp2961
g81
I3
ssg82
g2955
sg75
(lp2962
g1568
asbasbasbag68
(g84
g70
NtRp2963
(dp2964
g73
(dp2965
sg82
g2623
sg75
(lp2966
g68
(g89
g70
NtRp2967
(dp2968
g73
(dp2969
g93
g94
ssg82
g2963
sg75
(lp2970
S'SERVER_PORT'
p2971
asbag68
(g89
g70
NtRp2972
(dp2973
g73
(dp2974
g100
g101
ssg82
g2963
sg75
(lp2975
S':'
asbag68
(g89
g70
NtRp2976
(dp2977
g73
(dp2978
sg82
g2963
sg75
(lp2979
g68
(g69
g70
NtRp2980
(dp2981
g73
(dp2982
g81
I3
ssg82
g2976
sg75
(lp2983
g1590
asbasbasbag68
(g84
g70
NtRp2984
(dp2985
g73
(dp2986
sg82
g2623
sg75
(lp2987
g68
(g89
g70
NtRp2988
(dp2989
g73
(dp2990
g93
g94
ssg82
g2984
sg75
(lp2991
S'SERVER_PROTOCOL'
p2992
asbag68
(g89
g70
NtRp2993
(dp2994
g73
(dp2995
g100
g101
ssg82
g2984
sg75
(lp2996
S':'
asbag68
(g89
g70
NtRp2997
(dp2998
g73
(dp2999
sg82
g2984
sg75
(lp3000
g68
(g69
g70
NtRp3001
(dp3002
g73
(dp3003
g81
I3
ssg82
g2997
sg75
(lp3004
g1612
asbasbasbag68
(g84
g70
NtRp3005
(dp3006
g73
(dp3007
sg82
g2623
sg75
(lp3008
g68
(g89
g70
NtRp3009
(dp3010
g73
(dp3011
g93
g94
ssg82
g3005
sg75
(lp3012
S'SERVER_SOFTWARE'
p3013
asbag68
(g89
g70
NtRp3014
(dp3015
g73
(dp3016
g100
g101
ssg82
g3005
sg75
(lp3017
S':'
asbag68
(g89
g70
NtRp3018
(dp3019
g73
(dp3020
sg82
g3005
sg75
(lp3021
g68
(g69
g70
NtRp3022
(dp3023
g73
(dp3024
g81
I3
ssg82
g3018
sg75
(lp3025
g1634
asbasbasbag68
(g84
g70
NtRp3026
(dp3027
g73
(dp3028
sg82
g2623
sg75
(lp3029
g68
(g89
g70
NtRp3030
(dp3031
g73
(dp3032
g93
g94
ssg82
g3026
sg75
(lp3033
S'wsgi.errors'
p3034
asbag68
(g89
g70
NtRp3035
(dp3036
g73
(dp3037
g100
g101
ssg82
g3026
sg75
(lp3038
S':'
asbag68
(g89
g70
NtRp3039
(dp3040
g73
(dp3041
sg82
g3026
sg75
(lp3042
g68
(g69
g70
NtRp3043
(dp3044
g73
(dp3045
g81
I3
ssg82
g3039
sg75
(lp3046
S"<open file '<stderr>', mode 'w' at 0x00B150D0>"
p3047
asbasbasbag68
(g84
g70
NtRp3048
(dp3049
g73
(dp3050
sg82
g2623
sg75
(lp3051
g68
(g89
g70
NtRp3052
(dp3053
g73
(dp3054
g93
g94
ssg82
g3048
sg75
(lp3055
S'wsgi.file_wrapper'
p3056
asbag68
(g89
g70
NtRp3057
(dp3058
g73
(dp3059
g100
g101
ssg82
g3048
sg75
(lp3060
S':'
asbag68
(g89
g70
NtRp3061
(dp3062
g73
(dp3063
sg82
g3048
sg75
(lp3064
g68
(g69
g70
NtRp3065
(dp3066
g73
(dp3067
g81
I3
ssg82
g3061
sg75
(lp3068
S'<class wsgiref.util.FileWrapper at 0x01596420>'
p3069
asbasbasbag68
(g84
g70
NtRp3070
(dp3071
g73
(dp3072
sg82
g2623
sg75
(lp3073
g68
(g89
g70
NtRp3074
(dp3075
g73
(dp3076
g93
g94
ssg82
g3070
sg75
(lp3077
S'wsgi.input'
p3078
asbag68
(g89
g70
NtRp3079
(dp3080
g73
(dp3081
g100
g101
ssg82
g3070
sg75
(lp3082
S':'
asbag68
(g89
g70
NtRp3083
(dp3084
g73
(dp3085
sg82
g3070
sg75
(lp3086
g68
(g69
g70
NtRp3087
(dp3088
g73
(dp3089
g81
I3
ssg82
g3083
sg75
(lp3090
S'<cStringIO.StringO object at 0x01A595E0>'
p3091
asbasbasbag68
(g84
g70
NtRp3092
(dp3093
g73
(dp3094
sg82
g2623
sg75
(lp3095
g68
(g89
g70
NtRp3096
(dp3097
g73
(dp3098
g93
g94
ssg82
g3092
sg75
(lp3099
S'wsgi.multiprocess'
p3100
asbag68
(g89
g70
NtRp3101
(dp3102
g73
(dp3103
g100
g101
ssg82
g3092
sg75
(lp3104
S':'
asbag68
(g89
g70
NtRp3105
(dp3106
g73
(dp3107
sg82
g3092
sg75
(lp3108
g68
(g69
g70
NtRp3109
(dp3110
g73
(dp3111
g81
I3
ssg82
g3105
sg75
(lp3112
g111
asbasbasbag68
(g84
g70
NtRp3113
(dp3114
g73
(dp3115
sg82
g2623
sg75
(lp3116
g68
(g89
g70
NtRp3117
(dp3118
g73
(dp3119
g93
g94
ssg82
g3113
sg75
(lp3120
S'wsgi.multithread'
p3121
asbag68
(g89
g70
NtRp3122
(dp3123
g73
(dp3124
g100
g101
ssg82
g3113
sg75
(lp3125
S':'
asbag68
(g89
g70
NtRp3126
(dp3127
g73
(dp3128
sg82
g3113
sg75
(lp3129
g68
(g69
g70
NtRp3130
(dp3131
g73
(dp3132
g81
I3
ssg82
g3126
sg75
(lp3133
g1874
asbasbasbag68
(g84
g70
NtRp3134
(dp3135
g73
(dp3136
sg82
g2623
sg75
(lp3137
g68
(g89
g70
NtRp3138
(dp3139
g73
(dp3140
g93
g94
ssg82
g3134
sg75
(lp3141
S'wsgi.run_once'
p3142
asbag68
(g89
g70
NtRp3143
(dp3144
g73
(dp3145
g100
g101
ssg82
g3134
sg75
(lp3146
S':'
asbag68
(g89
g70
NtRp3147
(dp3148
g73
(dp3149
sg82
g3134
sg75
(lp3150
g68
(g69
g70
NtRp3151
(dp3152
g73
(dp3153
g81
I3
ssg82
g3147
sg75
(lp3154
g111
asbasbasbag68
(g84
g70
NtRp3155
(dp3156
g73
(dp3157
sg82
g2623
sg75
(lp3158
g68
(g89
g70
NtRp3159
(dp3160
g73
(dp3161
g93
g94
ssg82
g3155
sg75
(lp3162
S'wsgi.url_scheme'
p3163
asbag68
(g89
g70
NtRp3164
(dp3165
g73
(dp3166
g100
g101
ssg82
g3155
sg75
(lp3167
S':'
asbag68
(g89
g70
NtRp3168
(dp3169
g73
(dp3170
sg82
g3155
sg75
(lp3171
g68
(g69
g70
NtRp3172
(dp3173
g73
(dp3174
g81
I3
ssg82
g3168
sg75
(lp3175
g1917
asbasbasbag68
(g84
g70
NtRp3176
(dp3177
g73
(dp3178
sg82
g2623
sg75
(lp3179
g68
(g89
g70
NtRp3180
(dp3181
g73
(dp3182
g93
g94
ssg82
g3176
sg75
(lp3183
S'wsgi.version'
p3184
asbag68
(g89
g70
NtRp3185
(dp3186
g73
(dp3187
g100
g101
ssg82
g3176
sg75
(lp3188
S':'
asbag68
(g89
g70
NtRp3189
(dp3190
g73
(dp3191
sg82
g3176
sg75
(lp3192
g68
(g69
g70
NtRp3193
(dp3194
g73
(dp3195
g81
I3
ssg82
g3189
sg75
(lp3196
S'1'
asbasbasbasbasbasbasbasbasbasbasbasbasbsS'frames'
p3197
(lp3198
(dp3199
S'file'
p3200
S'C:\\my_share\\web2py\\gluon\\restricted.py'
p3201
sS'dump'
p3202
(dp3203
S'code'
p3204
S"'# -*- coding: utf-8 -*-\\nfrom backbone_form impor...mplate)\\n\\n\\nresponse._vars=response._caller(index)\\n'"
p3205
sS'layer'
p3206
S"r'C:\\my_share\\web2py\\applications\\backbone\\controllers/backbone_form.py'"
p3207
sS'global compile2'
p3208
S'<function compile2>'
p3209
sS'ccode'
p3210
S'undefined'
p3211
ssS'lnum'
p3212
I203
sS'lines'
p3213
(dp3214
I198
S"    environment['__file__'] = layer"
p3215
sI199
S'    try:'
p3216
sI200
S'        if type(code) == types.CodeType:'
p3217
sI201
S'            ccode = code'
p3218
sI202
S'        else:'
p3219
sI203
S'            ccode = compile2(code,layer)'
p3220
sI204
S'        exec ccode in environment'
p3221
sI205
S'    except HTTP:'
p3222
sI206
S'        raise'
p3223
sI207
S'    except RestrictedError:'
p3224
ssS'call'
p3225
S"(code='# -*- coding: utf-8 -*-\\nfrom backbone_form impor...mplate)\\n\\n\\nresponse._vars=response._caller(index)\\n', environment={'A': <class 'gluon.html.A'>, 'Auth': <class 'gluon.tools.Auth'>, 'B': <class 'gluon.html.B'>, 'BEAUTIFY': <class 'gluon.html.BEAUTIFY'>, 'BODY': <class 'gluon.html.BODY'>, 'BR': <class 'gluon.html.BR'>, 'BUTTON': <class 'gluon.html.BUTTON'>, 'CAT': <class 'gluon.html.CAT'>, 'CENTER': <class 'gluon.html.CENTER'>, 'CLEANUP': <class 'gluon.validators.CLEANUP'>, ...}, layer=r'C:\\my_share\\web2py\\applications\\backbone\\controllers/backbone_form.py')"
p3226
sS'func'
p3227
S'restricted'
p3228
sa(dp3229
g3200
S'C:\\my_share\\web2py\\gluon\\restricted.py'
p3230
sg3202
(dp3231
S'builtincompile'
p3232
S'<built-in function compile>'
p3233
sS'code'
p3234
S"'# -*- coding: utf-8 -*-\\nfrom backbone_form impor...mplate)\\n\\n\\nresponse._vars=response._caller(index)\\n'"
p3235
sS'code.rstrip'
p3236
S'<built-in method rstrip of str object>'
p3237
sS').replace'
p3238
g3211
sS'layer'
p3239
S"r'C:\\my_share\\web2py\\applications\\backbone\\controllers/backbone_form.py'"
p3240
ssg3212
I189
sg3213
(dp3241
I192
S'    """'
p3242
sI193
S'    runs code in environment and returns the output. if an exception occurs'
p3243
sI184
S''
sI185
S'def compile2(code,layer):'
p3244
sI186
S'    """'
p3245
sI187
S"    The +'\\n' is necessary else compile fails when code ends in a comment."
p3246
sI188
S'    """'
p3247
sI189
S"    return compile(code.rstrip().replace('\\r\\n','\\n')+'\\n', layer, 'exec')"
p3248
sI190
S''
sI191
S"def restricted(code, environment=None, layer='Unknown'):"
p3249
ssg3225
S"(code='# -*- coding: utf-8 -*-\\nfrom backbone_form impor...mplate)\\n\\n\\nresponse._vars=response._caller(index)\\n', layer=r'C:\\my_share\\web2py\\applications\\backbone\\controllers/backbone_form.py')"
p3250
sg3227
S'compile2'
p3251
sasS'pyver'
p3252
S'Python 2.6.6: C:\\Python26\\python.exe'
p3253
sS'session'
p3254
g68
(g69
g70
NtRp3255
(dp3256
g73
(dp3257
sg75
(lp3258
g68
(g77
g70
NtRp3259
(dp3260
g73
(dp3261
g81
I5
ssg82
Nsg75
(lp3262
sbasbsS'etype'
p3263
S"<type 'exceptions.IndentationError'>"
p3264
sS'date'
p3265
S'Tue Jun 05 19:24:19 2012'
p3266
sS'response'
p3267
g68
(g69
g70
NtRp3268
(dp3269
g73
(dp3270
sg75
(lp3271
g68
(g77
g70
NtRp3272
(dp3273
g73
(dp3274
g81
I5
ssg82
Nsg75
(lp3275
g68
(g84
g70
NtRp3276
(dp3277
g73
(dp3278
sg82
g3272
sg75
(lp3279
g68
(g89
g70
NtRp3280
(dp3281
g73
(dp3282
g93
g94
ssg82
g3276
sg75
(lp3283
g166
asbag68
(g89
g70
NtRp3284
(dp3285
g73
(dp3286
g100
g101
ssg82
g3276
sg75
(lp3287
S':'
asbag68
(g89
g70
NtRp3288
(dp3289
g73
(dp3290
sg82
g3276
sg75
(lp3291
g68
(g69
g70
NtRp3292
(dp3293
g73
(dp3294
g81
I5
ssg82
g3288
sg75
(lp3295
S'<cStringIO.StringO object at 0x01A59DC0>'
p3296
asbasbasbag68
(g84
g70
NtRp3297
(dp3298
g73
(dp3299
sg82
g3272
sg75
(lp3300
g68
(g89
g70
NtRp3301
(dp3302
g73
(dp3303
g93
g94
ssg82
g3297
sg75
(lp3304
g232
asbag68
(g89
g70
NtRp3305
(dp3306
g73
(dp3307
g100
g101
ssg82
g3297
sg75
(lp3308
S':'
asbag68
(g89
g70
NtRp3309
(dp3310
g73
(dp3311
sg82
g3297
sg75
(lp3312
g68
(g69
g70
NtRp3313
(dp3314
g73
(dp3315
g81
I5
ssg82
g3309
sg75
(lp3316
g68
(g77
g70
NtRp3317
(dp3318
g73
(dp3319
g81
I4
ssg82
Nsg75
(lp3320
g68
(g84
g70
NtRp3321
(dp3322
g73
(dp3323
sg82
g3317
sg75
(lp3324
g68
(g89
g70
NtRp3325
(dp3326
g73
(dp3327
g93
g94
ssg82
g3321
sg75
(lp3328
S'session_id_backbone'
p3329
asbag68
(g89
g70
NtRp3330
(dp3331
g73
(dp3332
g100
g101
ssg82
g3321
sg75
(lp3333
S':'
asbag68
(g89
g70
NtRp3334
(dp3335
g73
(dp3336
sg82
g3321
sg75
(lp3337
g68
(g69
g70
NtRp3338
(dp3339
g73
(dp3340
g81
I4
ssg82
g3334
sg75
(lp3341
g68
(g77
g70
NtRp3342
(dp3343
g73
(dp3344
g81
I3
ssg82
Nsg75
(lp3345
g68
(g84
g70
NtRp3346
(dp3347
g73
(dp3348
sg82
g3342
sg75
(lp3349
g68
(g89
g70
NtRp3350
(dp3351
g73
(dp3352
g93
g94
ssg82
g3346
sg75
(lp3353
g282
asbag68
(g89
g70
NtRp3354
(dp3355
g73
(dp3356
g100
g101
ssg82
g3346
sg75
(lp3357
S':'
asbag68
(g89
g70
NtRp3358
(dp3359
g73
(dp3360
sg82
g3346
sg75
(lp3361
g68
(g69
g70
NtRp3362
(dp3363
g73
(dp3364
g81
I3
ssg82
g3358
sg75
(lp3365
S''
asbasbasbag68
(g84
g70
NtRp3366
(dp3367
g73
(dp3368
sg82
g3342
sg75
(lp3369
g68
(g89
g70
NtRp3370
(dp3371
g73
(dp3372
g93
g94
ssg82
g3366
sg75
(lp3373
g303
asbag68
(g89
g70
NtRp3374
(dp3375
g73
(dp3376
g100
g101
ssg82
g3366
sg75
(lp3377
S':'
asbag68
(g89
g70
NtRp3378
(dp3379
g73
(dp3380
sg82
g3366
sg75
(lp3381
g68
(g69
g70
NtRp3382
(dp3383
g73
(dp3384
g81
I3
ssg82
g3378
sg75
(lp3385
S''
asbasbasbag68
(g84
g70
NtRp3386
(dp3387
g73
(dp3388
sg82
g3342
sg75
(lp3389
g68
(g89
g70
NtRp3390
(dp3391
g73
(dp3392
g93
g94
ssg82
g3386
sg75
(lp3393
g324
asbag68
(g89
g70
NtRp3394
(dp3395
g73
(dp3396
g100
g101
ssg82
g3386
sg75
(lp3397
S':'
asbag68
(g89
g70
NtRp3398
(dp3399
g73
(dp3400
sg82
g3386
sg75
(lp3401
g68
(g69
g70
NtRp3402
(dp3403
g73
(dp3404
g81
I3
ssg82
g3398
sg75
(lp3405
S''
asbasbasbag68
(g84
g70
NtRp3406
(dp3407
g73
(dp3408
sg82
g3342
sg75
(lp3409
g68
(g89
g70
NtRp3410
(dp3411
g73
(dp3412
g93
g94
ssg82
g3406
sg75
(lp3413
g345
asbag68
(g89
g70
NtRp3414
(dp3415
g73
(dp3416
g100
g101
ssg82
g3406
sg75
(lp3417
S':'
asbag68
(g89
g70
NtRp3418
(dp3419
g73
(dp3420
sg82
g3406
sg75
(lp3421
g68
(g69
g70
NtRp3422
(dp3423
g73
(dp3424
g81
I3
ssg82
g3418
sg75
(lp3425
S''
asbasbasbag68
(g84
g70
NtRp3426
(dp3427
g73
(dp3428
sg82
g3342
sg75
(lp3429
g68
(g89
g70
NtRp3430
(dp3431
g73
(dp3432
g93
g94
ssg82
g3426
sg75
(lp3433
g366
asbag68
(g89
g70
NtRp3434
(dp3435
g73
(dp3436
g100
g101
ssg82
g3426
sg75
(lp3437
S':'
asbag68
(g89
g70
NtRp3438
(dp3439
g73
(dp3440
sg82
g3426
sg75
(lp3441
g68
(g69
g70
NtRp3442
(dp3443
g73
(dp3444
g81
I3
ssg82
g3438
sg75
(lp3445
S''
asbasbasbag68
(g84
g70
NtRp3446
(dp3447
g73
(dp3448
sg82
g3342
sg75
(lp3449
g68
(g89
g70
NtRp3450
(dp3451
g73
(dp3452
g93
g94
ssg82
g3446
sg75
(lp3453
g387
asbag68
(g89
g70
NtRp3454
(dp3455
g73
(dp3456
g100
g101
ssg82
g3446
sg75
(lp3457
S':'
asbag68
(g89
g70
NtRp3458
(dp3459
g73
(dp3460
sg82
g3446
sg75
(lp3461
g68
(g69
g70
NtRp3462
(dp3463
g73
(dp3464
g81
I3
ssg82
g3458
sg75
(lp3465
S'/'
asbasbasbag68
(g84
g70
NtRp3466
(dp3467
g73
(dp3468
sg82
g3342
sg75
(lp3469
g68
(g89
g70
NtRp3470
(dp3471
g73
(dp3472
g93
g94
ssg82
g3466
sg75
(lp3473
g408
asbag68
(g89
g70
NtRp3474
(dp3475
g73
(dp3476
g100
g101
ssg82
g3466
sg75
(lp3477
S':'
asbag68
(g89
g70
NtRp3478
(dp3479
g73
(dp3480
sg82
g3466
sg75
(lp3481
g68
(g69
g70
NtRp3482
(dp3483
g73
(dp3484
g81
I3
ssg82
g3478
sg75
(lp3485
S''
asbasbasbag68
(g84
g70
NtRp3486
(dp3487
g73
(dp3488
sg82
g3342
sg75
(lp3489
g68
(g89
g70
NtRp3490
(dp3491
g73
(dp3492
g93
g94
ssg82
g3486
sg75
(lp3493
g429
asbag68
(g89
g70
NtRp3494
(dp3495
g73
(dp3496
g100
g101
ssg82
g3486
sg75
(lp3497
S':'
asbag68
(g89
g70
NtRp3498
(dp3499
g73
(dp3500
sg82
g3486
sg75
(lp3501
g68
(g69
g70
NtRp3502
(dp3503
g73
(dp3504
g81
I3
ssg82
g3498
sg75
(lp3505
S''
asbasbasbasbasbasbasbasbasbasbasbag68
(g84
g70
NtRp3506
(dp3507
g73
(dp3508
sg82
g3272
sg75
(lp3509
g68
(g89
g70
NtRp3510
(dp3511
g73
(dp3512
g93
g94
ssg82
g3506
sg75
(lp3513
S'files'
p3514
asbag68
(g89
g70
NtRp3515
(dp3516
g73
(dp3517
g100
g101
ssg82
g3506
sg75
(lp3518
S':'
asbag68
(g89
g70
NtRp3519
(dp3520
g73
(dp3521
sg82
g3506
sg75
(lp3522
g68
(g69
g70
NtRp3523
(dp3524
g73
(dp3525
g81
I5
ssg82
g3519
sg75
(lp3526
g68
(g77
g70
NtRp3527
(dp3528
g73
(dp3529
g81
I4
ssg82
Nsg75
(lp3530
sbasbasbasbag68
(g84
g70
NtRp3531
(dp3532
g73
(dp3533
sg82
g3272
sg75
(lp3534
g68
(g89
g70
NtRp3535
(dp3536
g73
(dp3537
g93
g94
ssg82
g3531
sg75
(lp3538
S'flash'
p3539
asbag68
(g89
g70
NtRp3540
(dp3541
g73
(dp3542
g100
g101
ssg82
g3531
sg75
(lp3543
S':'
asbag68
(g89
g70
NtRp3544
(dp3545
g73
(dp3546
sg82
g3531
sg75
(lp3547
g68
(g69
g70
NtRp3548
(dp3549
g73
(dp3550
g81
I5
ssg82
g3544
sg75
(lp3551
S''
asbasbasbag68
(g84
g70
NtRp3552
(dp3553
g73
(dp3554
sg82
g3272
sg75
(lp3555
g68
(g89
g70
NtRp3556
(dp3557
g73
(dp3558
g93
g94
ssg82
g3552
sg75
(lp3559
S'generic_patterns'
p3560
asbag68
(g89
g70
NtRp3561
(dp3562
g73
(dp3563
g100
g101
ssg82
g3552
sg75
(lp3564
S':'
asbag68
(g89
g70
NtRp3565
(dp3566
g73
(dp3567
sg82
g3552
sg75
(lp3568
g68
(g69
g70
NtRp3569
(dp3570
g73
(dp3571
g81
I5
ssg82
g3565
sg75
(lp3572
g68
(g77
g70
NtRp3573
(dp3574
g73
(dp3575
g81
I4
ssg82
Nsg75
(lp3576
g68
(g84
g70
NtRp3577
(dp3578
g73
(dp3579
sg82
g3573
sg75
(lp3580
g68
(g89
g70
NtRp3581
(dp3582
g73
(dp3583
sg82
g3577
sg75
(lp3584
g68
(g69
g70
NtRp3585
(dp3586
g73
(dp3587
g81
I4
ssg82
g3581
sg75
(lp3588
S'*'
asbasbasbasbasbasbasbag68
(g84
g70
NtRp3589
(dp3590
g73
(dp3591
sg82
g3272
sg75
(lp3592
g68
(g89
g70
NtRp3593
(dp3594
g73
(dp3595
g93
g94
ssg82
g3589
sg75
(lp3596
S'headers'
p3597
asbag68
(g89
g70
NtRp3598
(dp3599
g73
(dp3600
g100
g101
ssg82
g3589
sg75
(lp3601
S':'
asbag68
(g89
g70
NtRp3602
(dp3603
g73
(dp3604
sg82
g3589
sg75
(lp3605
g68
(g69
g70
NtRp3606
(dp3607
g73
(dp3608
g81
I5
ssg82
g3602
sg75
(lp3609
g68
(g77
g70
NtRp3610
(dp3611
g73
(dp3612
g81
I4
ssg82
Nsg75
(lp3613
g68
(g84
g70
NtRp3614
(dp3615
g73
(dp3616
sg82
g3610
sg75
(lp3617
g68
(g89
g70
NtRp3618
(dp3619
g73
(dp3620
g93
g94
ssg82
g3614
sg75
(lp3621
S'Cache-Control'
p3622
asbag68
(g89
g70
NtRp3623
(dp3624
g73
(dp3625
g100
g101
ssg82
g3614
sg75
(lp3626
S':'
asbag68
(g89
g70
NtRp3627
(dp3628
g73
(dp3629
sg82
g3614
sg75
(lp3630
g68
(g69
g70
NtRp3631
(dp3632
g73
(dp3633
g81
I4
ssg82
g3627
sg75
(lp3634
S'no-store, no-cache, must-revalidate, post-check=0, pre-check=0'
p3635
asbasbasbag68
(g84
g70
NtRp3636
(dp3637
g73
(dp3638
sg82
g3610
sg75
(lp3639
g68
(g89
g70
NtRp3640
(dp3641
g73
(dp3642
g93
g94
ssg82
g3636
sg75
(lp3643
S'Content-Type'
p3644
asbag68
(g89
g70
NtRp3645
(dp3646
g73
(dp3647
g100
g101
ssg82
g3636
sg75
(lp3648
S':'
asbag68
(g89
g70
NtRp3649
(dp3650
g73
(dp3651
sg82
g3636
sg75
(lp3652
g68
(g69
g70
NtRp3653
(dp3654
g73
(dp3655
g81
I4
ssg82
g3649
sg75
(lp3656
S'text/html; charset=utf-8'
p3657
asbasbasbag68
(g84
g70
NtRp3658
(dp3659
g73
(dp3660
sg82
g3610
sg75
(lp3661
g68
(g89
g70
NtRp3662
(dp3663
g73
(dp3664
g93
g94
ssg82
g3658
sg75
(lp3665
S'Expires'
p3666
asbag68
(g89
g70
NtRp3667
(dp3668
g73
(dp3669
g100
g101
ssg82
g3658
sg75
(lp3670
S':'
asbag68
(g89
g70
NtRp3671
(dp3672
g73
(dp3673
sg82
g3658
sg75
(lp3674
g68
(g69
g70
NtRp3675
(dp3676
g73
(dp3677
g81
I4
ssg82
g3671
sg75
(lp3678
S'Tue, 05 Jun 2012 10:24:19 GMT'
p3679
asbasbasbag68
(g84
g70
NtRp3680
(dp3681
g73
(dp3682
sg82
g3610
sg75
(lp3683
g68
(g89
g70
NtRp3684
(dp3685
g73
(dp3686
g93
g94
ssg82
g3680
sg75
(lp3687
S'Pragma'
p3688
asbag68
(g89
g70
NtRp3689
(dp3690
g73
(dp3691
g100
g101
ssg82
g3680
sg75
(lp3692
S':'
asbag68
(g89
g70
NtRp3693
(dp3694
g73
(dp3695
sg82
g3680
sg75
(lp3696
g68
(g69
g70
NtRp3697
(dp3698
g73
(dp3699
g81
I4
ssg82
g3693
sg75
(lp3700
S'no-cache'
p3701
asbasbasbag68
(g84
g70
NtRp3702
(dp3703
g73
(dp3704
sg82
g3610
sg75
(lp3705
g68
(g89
g70
NtRp3706
(dp3707
g73
(dp3708
g93
g94
ssg82
g3702
sg75
(lp3709
S'X-Powered-By'
p3710
asbag68
(g89
g70
NtRp3711
(dp3712
g73
(dp3713
g100
g101
ssg82
g3702
sg75
(lp3714
S':'
asbag68
(g89
g70
NtRp3715
(dp3716
g73
(dp3717
sg82
g3702
sg75
(lp3718
g68
(g69
g70
NtRp3719
(dp3720
g73
(dp3721
g81
I4
ssg82
g3715
sg75
(lp3722
S'web2py'
p3723
asbasbasbasbasbasbasbag68
(g84
g70
NtRp3724
(dp3725
g73
(dp3726
sg82
g3272
sg75
(lp3727
g68
(g89
g70
NtRp3728
(dp3729
g73
(dp3730
g93
g94
ssg82
g3724
sg75
(lp3731
S'menu'
p3732
asbag68
(g89
g70
NtRp3733
(dp3734
g73
(dp3735
g100
g101
ssg82
g3724
sg75
(lp3736
S':'
asbag68
(g89
g70
NtRp3737
(dp3738
g73
(dp3739
sg82
g3724
sg75
(lp3740
g68
(g69
g70
NtRp3741
(dp3742
g73
(dp3743
g81
I5
ssg82
g3737
sg75
(lp3744
g68
(g77
g70
NtRp3745
(dp3746
g73
(dp3747
g81
I4
ssg82
Nsg75
(lp3748
g68
(g84
g70
NtRp3749
(dp3750
g73
(dp3751
sg82
g3745
sg75
(lp3752
g68
(g89
g70
NtRp3753
(dp3754
g73
(dp3755
sg82
g3749
sg75
(lp3756
g68
(g69
g70
NtRp3757
(dp3758
g73
(dp3759
g81
I4
ssg82
g3753
sg75
(lp3760
g68
(g77
g70
NtRp3761
(dp3762
g73
(dp3763
g81
I3
ssg82
Nsg75
(lp3764
g68
(g84
g70
NtRp3765
(dp3766
g73
(dp3767
sg82
g3761
sg75
(lp3768
g68
(g89
g70
NtRp3769
(dp3770
g73
(dp3771
sg82
g3765
sg75
(lp3772
g68
(g69
g70
NtRp3773
(dp3774
g73
(dp3775
g81
I3
ssg82
g3769
sg75
(lp3776
cgluon.languages
lazyT_unpickle
p3777
(S's\x04\x00\x00\x00Home'
tRp3778
asbasbasbag68
(g84
g70
NtRp3779
(dp3780
g73
(dp3781
sg82
g3761
sg75
(lp3782
g68
(g89
g70
NtRp3783
(dp3784
g73
(dp3785
sg82
g3779
sg75
(lp3786
g68
(g69
g70
NtRp3787
(dp3788
g73
(dp3789
g81
I3
ssg82
g3783
sg75
(lp3790
g111
asbasbasbag68
(g84
g70
NtRp3791
(dp3792
g73
(dp3793
sg82
g3761
sg75
(lp3794
g68
(g89
g70
NtRp3795
(dp3796
g73
(dp3797
sg82
g3791
sg75
(lp3798
g68
(g69
g70
NtRp3799
(dp3800
g73
(dp3801
g81
I3
ssg82
g3795
sg75
(lp3802
S'/backbone/default/index'
p3803
asbasbasbag68
(g84
g70
NtRp3804
(dp3805
g73
(dp3806
sg82
g3761
sg75
(lp3807
g68
(g89
g70
NtRp3808
(dp3809
g73
(dp3810
sg82
g3804
sg75
(lp3811
g68
(g69
g70
NtRp3812
(dp3813
g73
(dp3814
g81
I3
ssg82
g3808
sg75
(lp3815
g68
(g77
g70
NtRp3816
(dp3817
g73
(dp3818
g81
I2
ssg82
Nsg75
(lp3819
sbasbasbasbasbasbasbasbag68
(g84
g70
NtRp3820
(dp3821
g73
(dp3822
sg82
g3745
sg75
(lp3823
g68
(g89
g70
NtRp3824
(dp3825
g73
(dp3826
sg82
g3820
sg75
(lp3827
g68
(g69
g70
NtRp3828
(dp3829
g73
(dp3830
g81
I4
ssg82
g3824
sg75
(lp3831
g68
(g77
g70
NtRp3832
(dp3833
g73
(dp3834
g81
I3
ssg82
Nsg75
(lp3835
g68
(g84
g70
NtRp3836
(dp3837
g73
(dp3838
sg82
g3832
sg75
(lp3839
g68
(g89
g70
NtRp3840
(dp3841
g73
(dp3842
sg82
g3836
sg75
(lp3843
g68
(g69
g70
NtRp3844
(dp3845
g73
(dp3846
g81
I3
ssg82
g3840
sg75
(lp3847
g68
(cgluon.html
SPAN
p3848
g70
NtRp3849
(dp3850
g73
(dp3851
g93
S'color:yellow'
p3852
ssg82
Nsg75
(lp3853
g3723
asbasbasbasbag68
(g84
g70
NtRp3854
(dp3855
g73
(dp3856
sg82
g3832
sg75
(lp3857
g68
(g89
g70
NtRp3858
(dp3859
g73
(dp3860
sg82
g3854
sg75
(lp3861
g68
(g69
g70
NtRp3862
(dp3863
g73
(dp3864
g81
I3
ssg82
g3858
sg75
(lp3865
g111
asbasbasbag68
(g84
g70
NtRp3866
(dp3867
g73
(dp3868
sg82
g3832
sg75
(lp3869
g68
(g89
g70
NtRp3870
(dp3871
g73
(dp3872
sg82
g3866
sg75
(lp3873
g68
(g69
g70
NtRp3874
(dp3875
g73
(dp3876
g81
I3
ssg82
g3870
sg75
(lp3877
S'None'
p3878
asbasbasbag68
(g84
g70
NtRp3879
(dp3880
g73
(dp3881
sg82
g3832
sg75
(lp3882
g68
(g89
g70
NtRp3883
(dp3884
g73
(dp3885
sg82
g3879
sg75
(lp3886
g68
(g69
g70
NtRp3887
(dp3888
g73
(dp3889
g81
I3
ssg82
g3883
sg75
(lp3890
g68
(g77
g70
NtRp3891
(dp3892
g73
(dp3893
g81
I2
ssg82
Nsg75
(lp3894
g68
(g84
g70
NtRp3895
(dp3896
g73
(dp3897
sg82
g3891
sg75
(lp3898
g68
(g89
g70
NtRp3899
(dp3900
g73
(dp3901
sg82
g3895
sg75
(lp3902
g68
(g69
g70
NtRp3903
(dp3904
g73
(dp3905
g81
I2
ssg82
g3899
sg75
(lp3906
g68
(g77
g70
NtRp3907
(dp3908
g73
(dp3909
g81
I1
ssg82
Nsg75
(lp3910
g68
(g84
g70
NtRp3911
(dp3912
g73
(dp3913
sg82
g3907
sg75
(lp3914
g68
(g89
g70
NtRp3915
(dp3916
g73
(dp3917
sg82
g3911
sg75
(lp3918
g68
(g69
g70
NtRp3919
(dp3920
g73
(dp3921
g81
I1
ssg82
g3915
sg75
(lp3922
g3777
(S's\x08\x00\x00\x00My Sites'
tRp3923
asbasbasbag68
(g84
g70
NtRp3924
(dp3925
g73
(dp3926
sg82
g3907
sg75
(lp3927
g68
(g89
g70
NtRp3928
(dp3929
g73
(dp3930
sg82
g3924
sg75
(lp3931
g68
(g69
g70
NtRp3932
(dp3933
g73
(dp3934
g81
I1
ssg82
g3928
sg75
(lp3935
I00
asbasbasbag68
(g84
g70
NtRp3936
(dp3937
g73
(dp3938
sg82
g3907
sg75
(lp3939
g68
(g89
g70
NtRp3940
(dp3941
g73
(dp3942
sg82
g3936
sg75
(lp3943
g68
(g69
g70
NtRp3944
(dp3945
g73
(dp3946
g81
I1
ssg82
g3940
sg75
(lp3947
S'/admin/default/site'
p3948
asbasbasbasbasbasbasbag68
(g84
g70
NtRp3949
(dp3950
g73
(dp3951
sg82
g3891
sg75
(lp3952
g68
(g89
g70
NtRp3953
(dp3954
g73
(dp3955
sg82
g3949
sg75
(lp3956
g68
(g69
g70
NtRp3957
(dp3958
g73
(dp3959
g81
I2
ssg82
g3953
sg75
(lp3960
g68
(g77
g70
NtRp3961
(dp3962
g73
(dp3963
g81
I1
ssg82
Nsg75
(lp3964
g68
(g84
g70
NtRp3965
(dp3966
g73
(dp3967
sg82
g3961
sg75
(lp3968
g68
(g89
g70
NtRp3969
(dp3970
g73
(dp3971
sg82
g3965
sg75
(lp3972
g68
(g69
g70
NtRp3973
(dp3974
g73
(dp3975
g81
I1
ssg82
g3969
sg75
(lp3976
g3777
(S's\x08\x00\x00\x00This App'
tRp3977
asbasbasbag68
(g84
g70
NtRp3978
(dp3979
g73
(dp3980
sg82
g3961
sg75
(lp3981
g68
(g89
g70
NtRp3982
(dp3983
g73
(dp3984
sg82
g3978
sg75
(lp3985
g68
(g69
g70
NtRp3986
(dp3987
g73
(dp3988
g81
I1
ssg82
g3982
sg75
(lp3989
I00
asbasbasbag68
(g84
g70
NtRp3990
(dp3991
g73
(dp3992
sg82
g3961
sg75
(lp3993
g68
(g89
g70
NtRp3994
(dp3995
g73
(dp3996
sg82
g3990
sg75
(lp3997
g68
(g69
g70
NtRp3998
(dp3999
g73
(dp4000
g81
I1
ssg82
g3994
sg75
(lp4001
S'/admin/default/design/backbone'
p4002
asbasbasbag68
(g84
g70
NtRp4003
(dp4004
g73
(dp4005
sg82
g3961
sg75
(lp4006
g68
(g89
g70
NtRp4007
(dp4008
g73
(dp4009
sg82
g4003
sg75
(lp4010
g68
(g69
g70
NtRp4011
(dp4012
g73
(dp4013
g81
I1
ssg82
g4007
sg75
(lp4014
(lp4015
(g3777
(S's\n\x00\x00\x00Controller'
tRp4016
I00
S'/admin/default/edit/backbone/controllers/backbone_form.py'
tp4017
a(g3777
(S's\x04\x00\x00\x00View'
tRp4018
I00
S'/admin/default/edit/backbone/views/backbone_form/index.html'
tp4019
a(g3777
(S's\x06\x00\x00\x00Layout'
tRp4020
I00
S'/admin/default/edit/backbone/views/layout.html'
tp4021
a(g3777
(S's\n\x00\x00\x00Stylesheet'
tRp4022
I00
S'/admin/default/edit/backbone/static/css/web2py.css'
tp4023
a(g3777
(S's\x08\x00\x00\x00DB Model'
tRp4024
I00
S'/admin/default/edit/backbone/models/db.py'
tp4025
a(g3777
(S's\n\x00\x00\x00Menu Model'
tRp4026
I00
S'/admin/default/edit/backbone/models/menu.py'
tp4027
a(g3777
(S's\x08\x00\x00\x00Database'
tRp4028
I00
S'/backbone/appadmin/index'
tp4029
a(g3777
(S's\x06\x00\x00\x00Errors'
tRp4030
I00
S'/admin/default/errors/backbone'
tp4031
a(g3777
(S's\x05\x00\x00\x00About'
tRp4032
I00
S'/admin/default/about/backbone'
tp4033
aasbasbasbasbasbasbasbag68
(g84
g70
NtRp4034
(dp4035
g73
(dp4036
sg82
g3891
sg75
(lp4037
g68
(g89
g70
NtRp4038
(dp4039
g73
(dp4040
sg82
g4034
sg75
(lp4041
g68
(g69
g70
NtRp4042
(dp4043
g73
(dp4044
g81
I2
ssg82
g4038
sg75
(lp4045
g68
(g77
g70
NtRp4046
(dp4047
g73
(dp4048
g81
I1
ssg82
Nsg75
(lp4049
g68
(g84
g70
NtRp4050
(dp4051
g73
(dp4052
sg82
g4046
sg75
(lp4053
g68
(g89
g70
NtRp4054
(dp4055
g73
(dp4056
sg82
g4050
sg75
(lp4057
g68
(g69
g70
NtRp4058
(dp4059
g73
(dp4060
g81
I1
ssg82
g4054
sg75
(lp4061
S'web2py.com'
p4062
asbasbasbag68
(g84
g70
NtRp4063
(dp4064
g73
(dp4065
sg82
g4046
sg75
(lp4066
g68
(g89
g70
NtRp4067
(dp4068
g73
(dp4069
sg82
g4063
sg75
(lp4070
g68
(g69
g70
NtRp4071
(dp4072
g73
(dp4073
g81
I1
ssg82
g4067
sg75
(lp4074
I00
asbasbasbag68
(g84
g70
NtRp4075
(dp4076
g73
(dp4077
sg82
g4046
sg75
(lp4078
g68
(g89
g70
NtRp4079
(dp4080
g73
(dp4081
sg82
g4075
sg75
(lp4082
g68
(g69
g70
NtRp4083
(dp4084
g73
(dp4085
g81
I1
ssg82
g4079
sg75
(lp4086
S'http://www.web2py.com'
p4087
asbasbasbag68
(g84
g70
NtRp4088
(dp4089
g73
(dp4090
sg82
g4046
sg75
(lp4091
g68
(g89
g70
NtRp4092
(dp4093
g73
(dp4094
sg82
g4088
sg75
(lp4095
g68
(g69
g70
NtRp4096
(dp4097
g73
(dp4098
g81
I1
ssg82
g4092
sg75
(lp4099
(lp4100
(g3777
(S's\x08\x00\x00\x00Download'
tRp4101
I00
S'http://www.web2py.com/examples/default/download'
p4102
tp4103
a(g3777
(S's\x07\x00\x00\x00Support'
tRp4104
I00
S'http://www.web2py.com/examples/default/support'
p4105
tp4106
a(g3777
(S's\x04\x00\x00\x00Demo'
tRp4107
I00
S'http://web2py.com/demo_admin'
p4108
tp4109
a(g3777
(S's\x0e\x00\x00\x00Quick Examples'
tRp4110
I00
S'http://web2py.com/examples/default/examples'
p4111
tp4112
a(g3777
(S's\x03\x00\x00\x00FAQ'
tRp4113
I00
S'http://web2py.com/AlterEgo'
p4114
tp4115
a(g3777
(S's\x06\x00\x00\x00Videos'
tRp4116
I00
S'http://www.web2py.com/examples/default/videos/'
p4117
tp4118
a(g3777
(S's\x11\x00\x00\x00Free Applications'
tRp4119
I00
S'http://web2py.com/appliances'
p4120
tp4121
a(g3777
(S's\x07\x00\x00\x00Plugins'
tRp4122
I00
S'http://web2py.com/plugins'
p4123
tp4124
a(g3777
(S's\x07\x00\x00\x00Layouts'
tRp4125
I00
S'http://web2py.com/layouts'
p4126
tp4127
a(g3777
(S's\x07\x00\x00\x00Recipes'
tRp4128
I00
S'http://web2pyslices.com/'
p4129
tp4130
a(g3777
(S's\x08\x00\x00\x00Semantic'
tRp4131
I00
S'http://web2py.com/semantic'
p4132
tp4133
aasbasbasbasbasbasbasbag68
(g84
g70
NtRp4134
(dp4135
g73
(dp4136
sg82
g3891
sg75
(lp4137
g68
(g89
g70
NtRp4138
(dp4139
g73
(dp4140
sg82
g4134
sg75
(lp4141
g68
(g69
g70
NtRp4142
(dp4143
g73
(dp4144
g81
I2
ssg82
g4138
sg75
(lp4145
g68
(g77
g70
NtRp4146
(dp4147
g73
(dp4148
g81
I1
ssg82
Nsg75
(lp4149
g68
(g84
g70
NtRp4150
(dp4151
g73
(dp4152
sg82
g4146
sg75
(lp4153
g68
(g89
g70
NtRp4154
(dp4155
g73
(dp4156
sg82
g4150
sg75
(lp4157
g68
(g69
g70
NtRp4158
(dp4159
g73
(dp4160
g81
I1
ssg82
g4154
sg75
(lp4161
g3777
(S's\r\x00\x00\x00Documentation'
tRp4162
asbasbasbag68
(g84
g70
NtRp4163
(dp4164
g73
(dp4165
sg82
g4146
sg75
(lp4166
g68
(g89
g70
NtRp4167
(dp4168
g73
(dp4169
sg82
g4163
sg75
(lp4170
g68
(g69
g70
NtRp4171
(dp4172
g73
(dp4173
g81
I1
ssg82
g4167
sg75
(lp4174
I00
asbasbasbag68
(g84
g70
NtRp4175
(dp4176
g73
(dp4177
sg82
g4146
sg75
(lp4178
g68
(g89
g70
NtRp4179
(dp4180
g73
(dp4181
sg82
g4175
sg75
(lp4182
g68
(g69
g70
NtRp4183
(dp4184
g73
(dp4185
g81
I1
ssg82
g4179
sg75
(lp4186
S'http://www.web2py.com/book'
p4187
asbasbasbag68
(g84
g70
NtRp4188
(dp4189
g73
(dp4190
sg82
g4146
sg75
(lp4191
g68
(g89
g70
NtRp4192
(dp4193
g73
(dp4194
sg82
g4188
sg75
(lp4195
g68
(g69
g70
NtRp4196
(dp4197
g73
(dp4198
g81
I1
ssg82
g4192
sg75
(lp4199
(lp4200
(g3777
(S's\x07\x00\x00\x00Preface'
tRp4201
I00
S'http://www.web2py.com/book/default/chapter/00'
p4202
tp4203
a(g3777
(S's\x0c\x00\x00\x00Introduction'
tRp4204
I00
S'http://www.web2py.com/book/default/chapter/01'
p4205
tp4206
a(g3777
(S's\x06\x00\x00\x00Python'
tRp4207
I00
S'http://www.web2py.com/book/default/chapter/02'
p4208
tp4209
a(g3777
(S's\x08\x00\x00\x00Overview'
tRp4210
I00
S'http://www.web2py.com/book/default/chapter/03'
p4211
tp4212
a(g3777
(S's\x08\x00\x00\x00The Core'
tRp4213
I00
S'http://www.web2py.com/book/default/chapter/04'
p4214
tp4215
a(g3777
(S's\t\x00\x00\x00The Views'
tRp4216
I00
S'http://www.web2py.com/book/default/chapter/05'
p4217
tp4218
a(g3777
(S's\x08\x00\x00\x00Database'
tRp4219
I00
S'http://www.web2py.com/book/default/chapter/06'
p4220
tp4221
a(g3777
(S's\x14\x00\x00\x00Forms and Validators'
tRp4222
I00
S'http://www.web2py.com/book/default/chapter/07'
p4223
tp4224
a(g3777
(S's\r\x00\x00\x00Email and SMS'
tRp4225
I00
S'http://www.web2py.com/book/default/chapter/08'
p4226
tp4227
a(g3777
(S's\x0e\x00\x00\x00Access Control'
tRp4228
I00
S'http://www.web2py.com/book/default/chapter/09'
p4229
tp4230
a(g3777
(S's\x08\x00\x00\x00Services'
tRp4231
I00
S'http://www.web2py.com/book/default/chapter/10'
p4232
tp4233
a(g3777
(S's\x0c\x00\x00\x00Ajax Recipes'
tRp4234
I00
S'http://www.web2py.com/book/default/chapter/11'
p4235
tp4236
a(g3777
(S's\x16\x00\x00\x00Components and Plugins'
tRp4237
I00
S'http://www.web2py.com/book/default/chapter/12'
p4238
tp4239
a(g3777
(S's\x12\x00\x00\x00Deployment Recipes'
tRp4240
I00
S'http://www.web2py.com/book/default/chapter/13'
p4241
tp4242
a(g3777
(S's\r\x00\x00\x00Other Recipes'
tRp4243
I00
S'http://www.web2py.com/book/default/chapter/14'
p4244
tp4245
a(g3777
(S's\r\x00\x00\x00Buy this book'
tRp4246
I00
S'http://stores.lulu.com/web2py'
p4247
tp4248
aasbasbasbasbasbasbasbag68
(g84
g70
NtRp4249
(dp4250
g73
(dp4251
sg82
g3891
sg75
(lp4252
g68
(g89
g70
NtRp4253
(dp4254
g73
(dp4255
sg82
g4249
sg75
(lp4256
g68
(g69
g70
NtRp4257
(dp4258
g73
(dp4259
g81
I2
ssg82
g4253
sg75
(lp4260
g68
(g77
g70
NtRp4261
(dp4262
g73
(dp4263
g81
I1
ssg82
Nsg75
(lp4264
g68
(g84
g70
NtRp4265
(dp4266
g73
(dp4267
sg82
g4261
sg75
(lp4268
g68
(g89
g70
NtRp4269
(dp4270
g73
(dp4271
sg82
g4265
sg75
(lp4272
g68
(g69
g70
NtRp4273
(dp4274
g73
(dp4275
g81
I1
ssg82
g4269
sg75
(lp4276
g3777
(S's\t\x00\x00\x00Community'
tRp4277
asbasbasbag68
(g84
g70
NtRp4278
(dp4279
g73
(dp4280
sg82
g4261
sg75
(lp4281
g68
(g89
g70
NtRp4282
(dp4283
g73
(dp4284
sg82
g4278
sg75
(lp4285
g68
(g69
g70
NtRp4286
(dp4287
g73
(dp4288
g81
I1
ssg82
g4282
sg75
(lp4289
I00
asbasbasbag68
(g84
g70
NtRp4290
(dp4291
g73
(dp4292
sg82
g4261
sg75
(lp4293
g68
(g89
g70
NtRp4294
(dp4295
g73
(dp4296
sg82
g4290
sg75
(lp4297
g68
(g69
g70
NtRp4298
(dp4299
g73
(dp4300
g81
I1
ssg82
g4294
sg75
(lp4301
Nasbasbasbag68
(g84
g70
NtRp4302
(dp4303
g73
(dp4304
sg82
g4261
sg75
(lp4305
g68
(g89
g70
NtRp4306
(dp4307
g73
(dp4308
sg82
g4302
sg75
(lp4309
g68
(g69
g70
NtRp4310
(dp4311
g73
(dp4312
g81
I1
ssg82
g4306
sg75
(lp4313
(lp4314
(g3777
(S's\x06\x00\x00\x00Groups'
tRp4315
I00
S'http://www.web2py.com/examples/default/usergroups'
p4316
tp4317
a(g3777
(S's\x07\x00\x00\x00Twitter'
tRp4318
I00
S'http://twitter.com/web2py'
p4319
tp4320
a(g3777
(S's\t\x00\x00\x00Live Chat'
tRp4321
I00
S'http://webchat.freenode.net/?channels=web2py'
p4322
tp4323
aasbasbasbasbasbasbasbag68
(g84
g70
NtRp4324
(dp4325
g73
(dp4326
sg82
g3891
sg75
(lp4327
g68
(g89
g70
NtRp4328
(dp4329
g73
(dp4330
sg82
g4324
sg75
(lp4331
g68
(g69
g70
NtRp4332
(dp4333
g73
(dp4334
g81
I2
ssg82
g4328
sg75
(lp4335
g68
(g77
g70
NtRp4336
(dp4337
g73
(dp4338
g81
I1
ssg82
Nsg75
(lp4339
g68
(g84
g70
NtRp4340
(dp4341
g73
(dp4342
sg82
g4336
sg75
(lp4343
g68
(g89
g70
NtRp4344
(dp4345
g73
(dp4346
sg82
g4340
sg75
(lp4347
g68
(g69
g70
NtRp4348
(dp4349
g73
(dp4350
g81
I1
ssg82
g4344
sg75
(lp4351
g3777
(S's\x07\x00\x00\x00Plugins'
tRp4352
asbasbasbag68
(g84
g70
NtRp4353
(dp4354
g73
(dp4355
sg82
g4336
sg75
(lp4356
g68
(g89
g70
NtRp4357
(dp4358
g73
(dp4359
sg82
g4353
sg75
(lp4360
g68
(g69
g70
NtRp4361
(dp4362
g73
(dp4363
g81
I1
ssg82
g4357
sg75
(lp4364
I00
asbasbasbag68
(g84
g70
NtRp4365
(dp4366
g73
(dp4367
sg82
g4336
sg75
(lp4368
g68
(g89
g70
NtRp4369
(dp4370
g73
(dp4371
sg82
g4365
sg75
(lp4372
g68
(g69
g70
NtRp4373
(dp4374
g73
(dp4375
g81
I1
ssg82
g4369
sg75
(lp4376
Nasbasbasbag68
(g84
g70
NtRp4377
(dp4378
g73
(dp4379
sg82
g4336
sg75
(lp4380
g68
(g89
g70
NtRp4381
(dp4382
g73
(dp4383
sg82
g4377
sg75
(lp4384
g68
(g69
g70
NtRp4385
(dp4386
g73
(dp4387
g81
I1
ssg82
g4381
sg75
(lp4388
(lp4389
(S'plugin_wiki'
p4390
I00
S'http://web2py.com/examples/default/download'
p4391
tp4392
a(g3777
(S's\r\x00\x00\x00Other Plugins'
tRp4393
I00
g4123
tp4394
a(g3777
(S's\x0e\x00\x00\x00Layout Plugins'
tRp4395
I00
g4126
tp4396
aasbasbasbasbasbasbasbasbasbasbasbasbasbasbasbasbasbasbasbag68
(g84
g70
NtRp4397
(dp4398
g73
(dp4399
sg82
g3272
sg75
(lp4400
g68
(g89
g70
NtRp4401
(dp4402
g73
(dp4403
g93
g94
ssg82
g4397
sg75
(lp4404
S'meta'
p4405
asbag68
(g89
g70
NtRp4406
(dp4407
g73
(dp4408
g100
g101
ssg82
g4397
sg75
(lp4409
S':'
asbag68
(g89
g70
NtRp4410
(dp4411
g73
(dp4412
sg82
g4397
sg75
(lp4413
g68
(g69
g70
NtRp4414
(dp4415
g73
(dp4416
g81
I5
ssg82
g4410
sg75
(lp4417
g68
(g77
g70
NtRp4418
(dp4419
g73
(dp4420
g81
I4
ssg82
Nsg75
(lp4421
g68
(g84
g70
NtRp4422
(dp4423
g73
(dp4424
sg82
g4418
sg75
(lp4425
g68
(g89
g70
NtRp4426
(dp4427
g73
(dp4428
g93
g94
ssg82
g4422
sg75
(lp4429
S'author'
p4430
asbag68
(g89
g70
NtRp4431
(dp4432
g73
(dp4433
g100
g101
ssg82
g4422
sg75
(lp4434
S':'
asbag68
(g89
g70
NtRp4435
(dp4436
g73
(dp4437
sg82
g4422
sg75
(lp4438
g68
(g69
g70
NtRp4439
(dp4440
g73
(dp4441
g81
I4
ssg82
g4435
sg75
(lp4442
S'Your Name <you@example.com>'
p4443
asbasbasbag68
(g84
g70
NtRp4444
(dp4445
g73
(dp4446
sg82
g4418
sg75
(lp4447
g68
(g89
g70
NtRp4448
(dp4449
g73
(dp4450
g93
g94
ssg82
g4444
sg75
(lp4451
S'copyright'
p4452
asbag68
(g89
g70
NtRp4453
(dp4454
g73
(dp4455
g100
g101
ssg82
g4444
sg75
(lp4456
S':'
asbag68
(g89
g70
NtRp4457
(dp4458
g73
(dp4459
sg82
g4444
sg75
(lp4460
g68
(g69
g70
NtRp4461
(dp4462
g73
(dp4463
g81
I4
ssg82
g4457
sg75
(lp4464
S'Copyright 2011'
p4465
asbasbasbag68
(g84
g70
NtRp4466
(dp4467
g73
(dp4468
sg82
g4418
sg75
(lp4469
g68
(g89
g70
NtRp4470
(dp4471
g73
(dp4472
g93
g94
ssg82
g4466
sg75
(lp4473
S'description'
p4474
asbag68
(g89
g70
NtRp4475
(dp4476
g73
(dp4477
g100
g101
ssg82
g4466
sg75
(lp4478
S':'
asbag68
(g89
g70
NtRp4479
(dp4480
g73
(dp4481
sg82
g4466
sg75
(lp4482
g68
(g69
g70
NtRp4483
(dp4484
g73
(dp4485
g81
I4
ssg82
g4479
sg75
(lp4486
S'a cool new app'
p4487
asbasbasbag68
(g84
g70
NtRp4488
(dp4489
g73
(dp4490
sg82
g4418
sg75
(lp4491
g68
(g89
g70
NtRp4492
(dp4493
g73
(dp4494
g93
g94
ssg82
g4488
sg75
(lp4495
S'generator'
p4496
asbag68
(g89
g70
NtRp4497
(dp4498
g73
(dp4499
g100
g101
ssg82
g4488
sg75
(lp4500
S':'
asbag68
(g89
g70
NtRp4501
(dp4502
g73
(dp4503
sg82
g4488
sg75
(lp4504
g68
(g69
g70
NtRp4505
(dp4506
g73
(dp4507
g81
I4
ssg82
g4501
sg75
(lp4508
S'Web2py Web Framework'
p4509
asbasbasbag68
(g84
g70
NtRp4510
(dp4511
g73
(dp4512
sg82
g4418
sg75
(lp4513
g68
(g89
g70
NtRp4514
(dp4515
g73
(dp4516
g93
g94
ssg82
g4510
sg75
(lp4517
S'keywords'
p4518
asbag68
(g89
g70
NtRp4519
(dp4520
g73
(dp4521
g100
g101
ssg82
g4510
sg75
(lp4522
S':'
asbag68
(g89
g70
NtRp4523
(dp4524
g73
(dp4525
sg82
g4510
sg75
(lp4526
g68
(g69
g70
NtRp4527
(dp4528
g73
(dp4529
g81
I4
ssg82
g4523
sg75
(lp4530
S'web2py, python, framework'
p4531
asbasbasbasbasbasbasbag68
(g84
g70
NtRp4532
(dp4533
g73
(dp4534
sg82
g3272
sg75
(lp4535
g68
(g89
g70
NtRp4536
(dp4537
g73
(dp4538
g93
g94
ssg82
g4532
sg75
(lp4539
S'postprocessing'
p4540
asbag68
(g89
g70
NtRp4541
(dp4542
g73
(dp4543
g100
g101
ssg82
g4532
sg75
(lp4544
S':'
asbag68
(g89
g70
NtRp4545
(dp4546
g73
(dp4547
sg82
g4532
sg75
(lp4548
g68
(g69
g70
NtRp4549
(dp4550
g73
(dp4551
g81
I5
ssg82
g4545
sg75
(lp4552
g68
(g77
g70
NtRp4553
(dp4554
g73
(dp4555
g81
I4
ssg82
Nsg75
(lp4556
sbasbasbasbag68
(g84
g70
NtRp4557
(dp4558
g73
(dp4559
sg82
g3272
sg75
(lp4560
g68
(g89
g70
NtRp4561
(dp4562
g73
(dp4563
g93
g94
ssg82
g4557
sg75
(lp4564
S'session_file'
p4565
asbag68
(g89
g70
NtRp4566
(dp4567
g73
(dp4568
g100
g101
ssg82
g4557
sg75
(lp4569
S':'
asbag68
(g89
g70
NtRp4570
(dp4571
g73
(dp4572
sg82
g4557
sg75
(lp4573
g68
(g69
g70
NtRp4574
(dp4575
g73
(dp4576
g81
I5
ssg82
g4570
sg75
(lp4577
S"<open file 'C:\\my_share\\web2py\\applications\\backbone\\sessions\\127.0.0.1-56fcba44-5880-4821-b1e7-d01b42760d16', mode 'rb+' at 0x06FA65A0>"
p4578
asbasbasbag68
(g84
g70
NtRp4579
(dp4580
g73
(dp4581
sg82
g3272
sg75
(lp4582
g68
(g89
g70
NtRp4583
(dp4584
g73
(dp4585
g93
g94
ssg82
g4579
sg75
(lp4586
S'session_filename'
p4587
asbag68
(g89
g70
NtRp4588
(dp4589
g73
(dp4590
g100
g101
ssg82
g4579
sg75
(lp4591
S':'
asbag68
(g89
g70
NtRp4592
(dp4593
g73
(dp4594
sg82
g4579
sg75
(lp4595
g68
(g69
g70
NtRp4596
(dp4597
g73
(dp4598
g81
I5
ssg82
g4592
sg75
(lp4599
S'C:\\my_share\\web2py\\applications\\backbone\\sessions\\127.0.0.1-56fcba44-5880-4821-b1e7-d01b42760d16'
p4600
asbasbasbag68
(g84
g70
NtRp4601
(dp4602
g73
(dp4603
sg82
g3272
sg75
(lp4604
g68
(g89
g70
NtRp4605
(dp4606
g73
(dp4607
g93
g94
ssg82
g4601
sg75
(lp4608
S'session_id'
p4609
asbag68
(g89
g70
NtRp4610
(dp4611
g73
(dp4612
g100
g101
ssg82
g4601
sg75
(lp4613
S':'
asbag68
(g89
g70
NtRp4614
(dp4615
g73
(dp4616
sg82
g4601
sg75
(lp4617
g68
(g69
g70
NtRp4618
(dp4619
g73
(dp4620
g81
I5
ssg82
g4614
sg75
(lp4621
S'127.0.0.1-56fcba44-5880-4821-b1e7-d01b42760d16'
p4622
asbasbasbag68
(g84
g70
NtRp4623
(dp4624
g73
(dp4625
sg82
g3272
sg75
(lp4626
g68
(g89
g70
NtRp4627
(dp4628
g73
(dp4629
g93
g94
ssg82
g4623
sg75
(lp4630
S'session_id_name'
p4631
asbag68
(g89
g70
NtRp4632
(dp4633
g73
(dp4634
g100
g101
ssg82
g4623
sg75
(lp4635
S':'
asbag68
(g89
g70
NtRp4636
(dp4637
g73
(dp4638
sg82
g4623
sg75
(lp4639
g68
(g69
g70
NtRp4640
(dp4641
g73
(dp4642
g81
I5
ssg82
g4636
sg75
(lp4643
g3329
asbasbasbag68
(g84
g70
NtRp4644
(dp4645
g73
(dp4646
sg82
g3272
sg75
(lp4647
g68
(g89
g70
NtRp4648
(dp4649
g73
(dp4650
g93
g94
ssg82
g4644
sg75
(lp4651
S'session_locked'
p4652
asbag68
(g89
g70
NtRp4653
(dp4654
g73
(dp4655
g100
g101
ssg82
g4644
sg75
(lp4656
S':'
asbag68
(g89
g70
NtRp4657
(dp4658
g73
(dp4659
sg82
g4644
sg75
(lp4660
g68
(g69
g70
NtRp4661
(dp4662
g73
(dp4663
g81
I5
ssg82
g4657
sg75
(lp4664
g1874
asbasbasbag68
(g84
g70
NtRp4665
(dp4666
g73
(dp4667
sg82
g3272
sg75
(lp4668
g68
(g89
g70
NtRp4669
(dp4670
g73
(dp4671
g93
g94
ssg82
g4665
sg75
(lp4672
S'session_new'
p4673
asbag68
(g89
g70
NtRp4674
(dp4675
g73
(dp4676
g100
g101
ssg82
g4665
sg75
(lp4677
S':'
asbag68
(g89
g70
NtRp4678
(dp4679
g73
(dp4680
sg82
g4665
sg75
(lp4681
g68
(g69
g70
NtRp4682
(dp4683
g73
(dp4684
g81
I5
ssg82
g4678
sg75
(lp4685
g111
asbasbasbag68
(g84
g70
NtRp4686
(dp4687
g73
(dp4688
sg82
g3272
sg75
(lp4689
g68
(g89
g70
NtRp4690
(dp4691
g73
(dp4692
g93
g94
ssg82
g4686
sg75
(lp4693
S'status'
p4694
asbag68
(g89
g70
NtRp4695
(dp4696
g73
(dp4697
g100
g101
ssg82
g4686
sg75
(lp4698
S':'
asbag68
(g89
g70
NtRp4699
(dp4700
g73
(dp4701
sg82
g4686
sg75
(lp4702
g68
(g69
g70
NtRp4703
(dp4704
g73
(dp4705
g81
I5
ssg82
g4699
sg75
(lp4706
S'200'
p4707
asbasbasbag68
(g84
g70
NtRp4708
(dp4709
g73
(dp4710
sg82
g3272
sg75
(lp4711
g68
(g89
g70
NtRp4712
(dp4713
g73
(dp4714
g93
g94
ssg82
g4708
sg75
(lp4715
S'subtitle'
p4716
asbag68
(g89
g70
NtRp4717
(dp4718
g73
(dp4719
g100
g101
ssg82
g4708
sg75
(lp4720
S':'
asbag68
(g89
g70
NtRp4721
(dp4722
g73
(dp4723
sg82
g4708
sg75
(lp4724
g68
(g69
g70
NtRp4725
(dp4726
g73
(dp4727
g81
I5
ssg82
g4721
sg75
(lp4728
g3777
(S's\r\x00\x00\x00customize me!'
tRp4729
asbasbasbag68
(g84
g70
NtRp4730
(dp4731
g73
(dp4732
sg82
g3272
sg75
(lp4733
g68
(g89
g70
NtRp4734
(dp4735
g73
(dp4736
g93
g94
ssg82
g4730
sg75
(lp4737
S'title'
p4738
asbag68
(g89
g70
NtRp4739
(dp4740
g73
(dp4741
g100
g101
ssg82
g4730
sg75
(lp4742
S':'
asbag68
(g89
g70
NtRp4743
(dp4744
g73
(dp4745
sg82
g4730
sg75
(lp4746
g68
(g69
g70
NtRp4747
(dp4748
g73
(dp4749
g81
I5
ssg82
g4743
sg75
(lp4750
S'Backbone'
p4751
asbasbasbag68
(g84
g70
NtRp4752
(dp4753
g73
(dp4754
sg82
g3272
sg75
(lp4755
g68
(g89
g70
NtRp4756
(dp4757
g73
(dp4758
g93
g94
ssg82
g4752
sg75
(lp4759
g2538
asbag68
(g89
g70
NtRp4760
(dp4761
g73
(dp4762
g100
g101
ssg82
g4752
sg75
(lp4763
S':'
asbag68
(g89
g70
NtRp4764
(dp4765
g73
(dp4766
sg82
g4752
sg75
(lp4767
g68
(g69
g70
NtRp4768
(dp4769
g73
(dp4770
g81
I5
ssg82
g4764
sg75
(lp4771
g2551
asbasbasbag68
(g84
g70
NtRp4772
(dp4773
g73
(dp4774
sg82
g3272
sg75
(lp4775
g68
(g89
g70
NtRp4776
(dp4777
g73
(dp4778
g93
g94
ssg82
g4772
sg75
(lp4779
S'view'
p4780
asbag68
(g89
g70
NtRp4781
(dp4782
g73
(dp4783
g100
g101
ssg82
g4772
sg75
(lp4784
S':'
asbag68
(g89
g70
NtRp4785
(dp4786
g73
(dp4787
sg82
g4772
sg75
(lp4788
g68
(g69
g70
NtRp4789
(dp4790
g73
(dp4791
g81
I5
ssg82
g4785
sg75
(lp4792
S'backbone_form/index.html'
p4793
asbasbasbasbasbsS'locals'
p4794
(dp4795
g4
S"r'C:\\my_share\\web2py\\applications\\backbone\\controllers/backbone_form.py'"
p4796
sg6
S"'# -*- coding: utf-8 -*-\\nfrom backbone_form impor...mplate)\\n\\n\\nresponse._vars=response._caller(index)\\n'"
p4797
sssS'traceback'
p4798
S'Traceback (most recent call last):\n  File "C:\\my_share\\web2py\\gluon\\restricted.py", line 203, in restricted\n    ccode = compile2(code,layer)\n  File "C:\\my_share\\web2py\\gluon\\restricted.py", line 189, in compile2\n    return compile(code.rstrip().replace(\'\\r\\n\',\'\\n\')+\'\\n\', layer, \'exec\')\n  File "C:\\my_share\\web2py\\applications\\backbone\\controllers/backbone_form.py", line 6\n    template = """ \\\n                   ^\nIndentationError: unindent does not match any outer indentation level\n'
p4799
s.